	.file	"cgo-gcc-input-972193426.c"
	.text
.Ltext0:
	.cfi_sections	.debug_frame
	.file 1 "C:/gold/goquarkchain/.tmp/cgo-gcc-input-972193426.c"
	.p2align 4
	.def	secp256k1_fe_normalize;	.scl	3;	.type	32;	.endef
	.seh_proc	secp256k1_fe_normalize
secp256k1_fe_normalize:
.LVL0:
.LFB117:
	.file 2 "././libsecp256k1/src/field_10x26_impl.h"
	.loc 2 43 53 view -0
	.cfi_startproc
	.loc 2 43 53 is_stmt 0 view .LVU1
	pushq	%r14
	.seh_pushreg	%r14
.LCFI0:
	.cfi_def_cfa_offset 16
	.cfi_offset 14, -16
	pushq	%r13
	.seh_pushreg	%r13
.LCFI1:
	.cfi_def_cfa_offset 24
	.cfi_offset 13, -24
	pushq	%r12
	.seh_pushreg	%r12
.LCFI2:
	.cfi_def_cfa_offset 32
	.cfi_offset 12, -32
	pushq	%rbp
	.seh_pushreg	%rbp
.LCFI3:
	.cfi_def_cfa_offset 40
	.cfi_offset 6, -40
	pushq	%rdi
	.seh_pushreg	%rdi
.LCFI4:
	.cfi_def_cfa_offset 48
	.cfi_offset 5, -48
	pushq	%rsi
	.seh_pushreg	%rsi
.LCFI5:
	.cfi_def_cfa_offset 56
	.cfi_offset 4, -56
	pushq	%rbx
	.seh_pushreg	%rbx
.LCFI6:
	.cfi_def_cfa_offset 64
	.cfi_offset 3, -64
	.seh_endprologue
	.loc 2 44 5 is_stmt 1 view .LVU2
.LVL1:
	.loc 2 43 53 is_stmt 0 view .LVU3
	movq	%rcx, %rax
	.loc 2 45 70 view .LVU4
	movl	36(%rcx), %ecx
.LVL2:
	.loc 2 48 5 is_stmt 1 view .LVU5
	.loc 2 49 5 view .LVU6
	.loc 2 49 14 is_stmt 0 view .LVU7
	movl	%ecx, %r11d
	.loc 2 49 31 view .LVU8
	andl	$4194303, %ecx
.LVL3:
	.loc 2 49 14 view .LVU9
	shrl	$22, %r11d
.LVL4:
	.loc 2 49 28 is_stmt 1 view .LVU10
	.loc 2 52 5 view .LVU11
	.loc 2 52 13 is_stmt 0 view .LVU12
	imull	$977, %r11d, %esi
	.loc 2 52 8 view .LVU13
	addl	(%rax), %esi
.LVL5:
	.loc 2 52 24 is_stmt 1 view .LVU14
	.loc 2 52 33 is_stmt 0 view .LVU15
	sall	$6, %r11d
.LVL6:
	.loc 2 52 27 view .LVU16
	addl	4(%rax), %r11d
.LVL7:
	.loc 2 53 5 is_stmt 1 view .LVU17
	.loc 2 53 15 is_stmt 0 view .LVU18
	movl	%esi, %edx
	.loc 2 53 26 view .LVU19
	andl	$67108863, %esi
.LVL8:
	.loc 2 53 15 view .LVU20
	shrl	$26, %edx
.LVL9:
	.loc 2 53 8 view .LVU21
	addl	%edx, %r11d
.LVL10:
	.loc 2 53 23 is_stmt 1 view .LVU22
	.loc 2 54 5 view .LVU23
	.loc 2 54 15 is_stmt 0 view .LVU24
	movl	%r11d, %edx
	.loc 2 54 26 view .LVU25
	andl	$67108863, %r11d
.LVL11:
	.loc 2 54 15 view .LVU26
	shrl	$26, %edx
.LVL12:
	.loc 2 54 8 view .LVU27
	addl	8(%rax), %edx
.LVL13:
	.loc 2 54 23 is_stmt 1 view .LVU28
	.loc 2 55 5 view .LVU29
	.loc 2 55 15 is_stmt 0 view .LVU30
	movl	%edx, %r10d
	.loc 2 55 26 view .LVU31
	movl	%edx, %ebx
	.loc 2 55 15 view .LVU32
	shrl	$26, %r10d
	.loc 2 55 8 view .LVU33
	addl	12(%rax), %r10d
.LVL14:
	.loc 2 55 23 is_stmt 1 view .LVU34
	.loc 2 55 26 is_stmt 0 view .LVU35
	andl	$67108863, %ebx
.LVL15:
	.loc 2 55 42 is_stmt 1 view .LVU36
	.loc 2 56 5 view .LVU37
	.loc 2 56 15 is_stmt 0 view .LVU38
	movl	%r10d, %r9d
	.loc 2 56 26 view .LVU39
	andl	$67108863, %r10d
.LVL16:
	.loc 2 56 15 view .LVU40
	shrl	$26, %r9d
.LVL17:
	.loc 2 56 8 view .LVU41
	addl	16(%rax), %r9d
.LVL18:
	.loc 2 56 23 is_stmt 1 view .LVU42
	.loc 2 56 42 view .LVU43
	.loc 2 56 44 is_stmt 0 view .LVU44
	andl	%r10d, %edx
.LVL19:
	.loc 2 57 5 is_stmt 1 view .LVU45
	.loc 2 57 15 is_stmt 0 view .LVU46
	movl	%r9d, %r8d
	.loc 2 57 26 view .LVU47
	andl	$67108863, %r9d
.LVL20:
	.loc 2 57 15 view .LVU48
	shrl	$26, %r8d
.LVL21:
	.loc 2 57 8 view .LVU49
	addl	20(%rax), %r8d
.LVL22:
	.loc 2 57 23 is_stmt 1 view .LVU50
	.loc 2 57 42 view .LVU51
	.loc 2 57 44 is_stmt 0 view .LVU52
	andl	%r9d, %edx
.LVL23:
	.loc 2 58 5 is_stmt 1 view .LVU53
	.loc 2 58 15 is_stmt 0 view .LVU54
	movl	%r8d, %edi
	.loc 2 58 26 view .LVU55
	andl	$67108863, %r8d
.LVL24:
	.loc 2 58 15 view .LVU56
	shrl	$26, %edi
.LVL25:
	.loc 2 58 8 view .LVU57
	addl	24(%rax), %edi
.LVL26:
	.loc 2 58 23 is_stmt 1 view .LVU58
	.loc 2 58 42 view .LVU59
	.loc 2 58 44 is_stmt 0 view .LVU60
	andl	%r8d, %edx
.LVL27:
	.loc 2 59 5 is_stmt 1 view .LVU61
	.loc 2 59 15 is_stmt 0 view .LVU62
	movl	%edi, %ebp
	.loc 2 59 26 view .LVU63
	andl	$67108863, %edi
.LVL28:
	.loc 2 59 15 view .LVU64
	shrl	$26, %ebp
.LVL29:
	.loc 2 59 8 view .LVU65
	addl	28(%rax), %ebp
.LVL30:
	.loc 2 59 23 is_stmt 1 view .LVU66
	.loc 2 59 42 view .LVU67
	.loc 2 59 44 is_stmt 0 view .LVU68
	andl	%edi, %edx
.LVL31:
	.loc 2 60 5 is_stmt 1 view .LVU69
	.loc 2 60 15 is_stmt 0 view .LVU70
	movl	%ebp, %r14d
	shrl	$26, %r14d
	.loc 2 60 8 view .LVU71
	addl	32(%rax), %r14d
.LVL32:
	.loc 2 60 23 is_stmt 1 view .LVU72
	.loc 2 60 26 is_stmt 0 view .LVU73
	andl	$67108863, %ebp
.LVL33:
	.loc 2 60 42 is_stmt 1 view .LVU74
	.loc 2 61 15 is_stmt 0 view .LVU75
	movl	%r14d, %r12d
	.loc 2 61 26 view .LVU76
	movl	%r14d, %r13d
	.loc 2 60 44 view .LVU77
	andl	%ebp, %edx
.LVL34:
	.loc 2 61 5 is_stmt 1 view .LVU78
	.loc 2 61 15 is_stmt 0 view .LVU79
	shrl	$26, %r12d
	.loc 2 61 26 view .LVU80
	andl	$67108863, %r13d
	.loc 2 61 8 view .LVU81
	addl	%ecx, %r12d
.LVL35:
	.loc 2 61 23 is_stmt 1 view .LVU82
	.loc 2 61 42 view .LVU83
	.loc 2 64 5 view .LVU84
	.loc 2 64 5 view .LVU85
	.loc 2 67 5 view .LVU86
	.loc 2 68 32 is_stmt 0 view .LVU87
	leal	977(%rsi), %ecx
	.loc 2 68 43 view .LVU88
	shrl	$26, %ecx
	.loc 2 68 25 view .LVU89
	leal	64(%r11,%rcx), %ecx
	.loc 2 68 51 view .LVU90
	cmpl	$67108863, %ecx
	seta	%cl
	.loc 2 61 44 view .LVU91
	andl	%edx, %r14d
	.loc 2 67 43 view .LVU92
	cmpl	$67108863, %r14d
	sete	%dl
.LVL36:
	.loc 2 67 43 view .LVU93
	cmpl	$4194303, %r12d
	sete	%r14b
	andl	%r14d, %edx
	.loc 2 68 9 view .LVU94
	andl	%edx, %ecx
	.loc 2 67 13 view .LVU95
	movl	%r12d, %edx
	shrl	$22, %edx
	.loc 2 68 9 view .LVU96
	movzbl	%cl, %ecx
	.loc 2 67 7 view .LVU97
	orl	%edx, %ecx
.LVL37:
	.loc 2 71 5 is_stmt 1 view .LVU98
	.loc 2 71 13 is_stmt 0 view .LVU99
	movl	%ecx, %edx
	.loc 2 71 33 view .LVU100
	sall	$6, %ecx
.LVL38:
	.loc 2 71 13 view .LVU101
	negl	%edx
.LVL39:
	.loc 2 71 27 view .LVU102
	addl	%r11d, %ecx
	.loc 2 71 13 view .LVU103
	andl	$977, %edx
.LVL40:
	.loc 2 71 8 view .LVU104
	addl	%esi, %edx
.LVL41:
	.loc 2 71 24 is_stmt 1 view .LVU105
	.loc 2 72 5 view .LVU106
	.loc 2 72 15 is_stmt 0 view .LVU107
	movl	%edx, %r11d
	.loc 2 72 26 view .LVU108
	movd	%edx, %xmm0
	.loc 2 72 15 view .LVU109
	shrl	$26, %r11d
	.loc 2 72 8 view .LVU110
	addl	%ecx, %r11d
.LVL42:
	.loc 2 72 23 is_stmt 1 view .LVU111
	.loc 2 73 5 view .LVU112
	.loc 2 73 15 is_stmt 0 view .LVU113
	movl	%r11d, %ecx
	.loc 2 72 26 view .LVU114
	movd	%r11d, %xmm4
	.loc 2 73 15 view .LVU115
	shrl	$26, %ecx
	.loc 2 72 26 view .LVU116
	punpckldq	%xmm4, %xmm0
	.loc 2 73 8 view .LVU117
	addl	%ecx, %ebx
.LVL43:
	.loc 2 73 23 is_stmt 1 view .LVU118
	.loc 2 74 5 view .LVU119
	.loc 2 74 15 is_stmt 0 view .LVU120
	movl	%ebx, %esi
	.loc 2 72 26 view .LVU121
	movd	%ebx, %xmm1
	.loc 2 74 15 view .LVU122
	shrl	$26, %esi
	.loc 2 74 8 view .LVU123
	addl	%r10d, %esi
.LVL44:
	.loc 2 74 23 is_stmt 1 view .LVU124
	.loc 2 75 5 view .LVU125
	.loc 2 75 15 is_stmt 0 view .LVU126
	movl	%esi, %ecx
	.loc 2 72 26 view .LVU127
	movd	%esi, %xmm3
	.loc 2 75 15 view .LVU128
	shrl	$26, %ecx
	.loc 2 72 26 view .LVU129
	punpckldq	%xmm3, %xmm1
	.loc 2 75 8 view .LVU130
	addl	%r9d, %ecx
.LVL45:
	.loc 2 75 23 is_stmt 1 view .LVU131
	.loc 2 76 5 view .LVU132
	.loc 2 72 26 is_stmt 0 view .LVU133
	punpcklqdq	%xmm1, %xmm0
	pcmpeqd	%xmm1, %xmm1
	.loc 2 76 15 view .LVU134
	movl	%ecx, %r14d
	.loc 2 72 26 view .LVU135
	psrld	$6, %xmm1
	.loc 2 76 15 view .LVU136
	shrl	$26, %r14d
	.loc 2 72 26 view .LVU137
	pand	%xmm1, %xmm0
	.loc 2 76 8 view .LVU138
	addl	%r8d, %r14d
.LVL46:
	.loc 2 76 23 is_stmt 1 view .LVU139
	.loc 2 77 5 view .LVU140
	.loc 2 88 13 is_stmt 0 view .LVU141
	movups	%xmm0, (%rax)
.LVL47:
	.loc 2 72 26 view .LVU142
	movd	%ecx, %xmm0
	.loc 2 77 15 view .LVU143
	movl	%r14d, %r10d
	.loc 2 72 26 view .LVU144
	movd	%r14d, %xmm3
	.loc 2 77 15 view .LVU145
	shrl	$26, %r10d
	.loc 2 72 26 view .LVU146
	punpckldq	%xmm3, %xmm0
	.loc 2 77 8 view .LVU147
	addl	%edi, %r10d
.LVL48:
	.loc 2 77 23 is_stmt 1 view .LVU148
	.loc 2 78 5 view .LVU149
	.loc 2 78 15 is_stmt 0 view .LVU150
	movl	%r10d, %edi
	.loc 2 72 26 view .LVU151
	movd	%r10d, %xmm2
	.loc 2 78 15 view .LVU152
	shrl	$26, %edi
	.loc 2 78 8 view .LVU153
	addl	%ebp, %edi
.LVL49:
	.loc 2 78 23 is_stmt 1 view .LVU154
	.loc 2 79 5 view .LVU155
	.loc 2 79 15 is_stmt 0 view .LVU156
	movl	%edi, %r8d
	.loc 2 72 26 view .LVU157
	movd	%edi, %xmm5
	.loc 2 79 15 view .LVU158
	shrl	$26, %r8d
	.loc 2 72 26 view .LVU159
	punpckldq	%xmm5, %xmm2
	.loc 2 79 8 view .LVU160
	addl	%r13d, %r8d
.LVL50:
	.loc 2 79 23 is_stmt 1 view .LVU161
	.loc 2 80 5 view .LVU162
	.loc 2 72 26 is_stmt 0 view .LVU163
	punpcklqdq	%xmm2, %xmm0
	.loc 2 80 15 view .LVU164
	movl	%r8d, %r9d
	.loc 2 72 26 view .LVU165
	pand	%xmm1, %xmm0
	.loc 2 80 26 view .LVU166
	andl	$67108863, %r8d
.LVL51:
	.loc 2 80 15 view .LVU167
	shrl	$26, %r9d
.LVL52:
	.loc 2 80 26 view .LVU168
	movl	%r8d, 32(%rax)
	.loc 2 80 8 view .LVU169
	addl	%r12d, %r9d
.LVL53:
	.loc 2 80 23 is_stmt 1 view .LVU170
	.loc 2 83 5 view .LVU171
	.loc 2 83 5 view .LVU172
	.loc 2 86 5 view .LVU173
	.loc 2 88 5 view .LVU174
	.loc 2 88 19 view .LVU175
	.loc 2 88 33 view .LVU176
	.loc 2 88 47 view .LVU177
	.loc 2 88 61 view .LVU178
	.loc 2 89 5 view .LVU179
	.loc 2 89 19 view .LVU180
	.loc 2 89 33 view .LVU181
	.loc 2 88 13 is_stmt 0 view .LVU182
	movups	%xmm0, 16(%rax)
	.loc 2 89 47 is_stmt 1 view .LVU183
	.loc 2 89 61 view .LVU184
	.loc 2 86 8 is_stmt 0 view .LVU185
	andl	$4194303, %r9d
.LVL54:
	.loc 2 86 8 view .LVU186
	movl	%r9d, 36(%rax)
	.loc 2 96 1 view .LVU187
	popq	%rbx
.LCFI7:
	.cfi_restore 3
	.cfi_def_cfa_offset 56
.LVL55:
	.loc 2 96 1 view .LVU188
	popq	%rsi
.LCFI8:
	.cfi_restore 4
	.cfi_def_cfa_offset 48
.LVL56:
	.loc 2 96 1 view .LVU189
	popq	%rdi
.LCFI9:
	.cfi_restore 5
	.cfi_def_cfa_offset 40
.LVL57:
	.loc 2 96 1 view .LVU190
	popq	%rbp
.LCFI10:
	.cfi_restore 6
	.cfi_def_cfa_offset 32
	popq	%r12
.LCFI11:
	.cfi_restore 12
	.cfi_def_cfa_offset 24
	popq	%r13
.LCFI12:
	.cfi_restore 13
	.cfi_def_cfa_offset 16
	popq	%r14
.LCFI13:
	.cfi_restore 14
	.cfi_def_cfa_offset 8
.LVL58:
	.loc 2 96 1 view .LVU191
	ret
	.cfi_endproc
.LFE117:
	.seh_endproc
	.p2align 4
	.def	secp256k1_fe_normalize_weak;	.scl	3;	.type	32;	.endef
	.seh_proc	secp256k1_fe_normalize_weak
secp256k1_fe_normalize_weak:
.LVL59:
.LFB118:
	.loc 2 98 58 is_stmt 1 view -0
	.cfi_startproc
	.loc 2 98 58 is_stmt 0 view .LVU193
	pushq	%rbp
	.seh_pushreg	%rbp
.LCFI14:
	.cfi_def_cfa_offset 16
	.cfi_offset 6, -16
	pushq	%rdi
	.seh_pushreg	%rdi
.LCFI15:
	.cfi_def_cfa_offset 24
	.cfi_offset 5, -24
	pushq	%rsi
	.seh_pushreg	%rsi
.LCFI16:
	.cfi_def_cfa_offset 32
	.cfi_offset 4, -32
	pushq	%rbx
	.seh_pushreg	%rbx
.LCFI17:
	.cfi_def_cfa_offset 40
	.cfi_offset 3, -40
	.seh_endprologue
	.loc 2 99 5 is_stmt 1 view .LVU194
.LVL60:
	.loc 2 100 70 is_stmt 0 view .LVU195
	movl	36(%rcx), %r11d
.LVL61:
	.loc 2 103 5 is_stmt 1 view .LVU196
	.loc 2 103 14 is_stmt 0 view .LVU197
	movl	%r11d, %edx
	.loc 2 103 31 view .LVU198
	andl	$4194303, %r11d
.LVL62:
	.loc 2 103 14 view .LVU199
	shrl	$22, %edx
.LVL63:
	.loc 2 103 28 is_stmt 1 view .LVU200
	.loc 2 106 5 view .LVU201
	.loc 2 106 13 is_stmt 0 view .LVU202
	imull	$977, %edx, %r8d
	.loc 2 106 8 view .LVU203
	addl	(%rcx), %r8d
.LVL64:
	.loc 2 106 24 is_stmt 1 view .LVU204
	.loc 2 106 33 is_stmt 0 view .LVU205
	sall	$6, %edx
.LVL65:
	.loc 2 106 27 view .LVU206
	addl	4(%rcx), %edx
.LVL66:
	.loc 2 107 5 is_stmt 1 view .LVU207
	.loc 2 107 15 is_stmt 0 view .LVU208
	movl	%r8d, %edi
	.loc 2 107 26 view .LVU209
	movd	%r8d, %xmm0
	.loc 2 98 58 view .LVU210
	movq	%rcx, %rax
	.loc 2 107 15 view .LVU211
	shrl	$26, %edi
	.loc 2 107 8 view .LVU212
	addl	%edx, %edi
.LVL67:
	.loc 2 107 23 is_stmt 1 view .LVU213
	.loc 2 108 5 view .LVU214
	.loc 2 108 15 is_stmt 0 view .LVU215
	movl	%edi, %r10d
	.loc 2 107 26 view .LVU216
	movd	%edi, %xmm4
	.loc 2 108 15 view .LVU217
	shrl	$26, %r10d
	.loc 2 108 8 view .LVU218
	addl	8(%rcx), %r10d
.LVL68:
	.loc 2 108 23 is_stmt 1 view .LVU219
	.loc 2 109 5 view .LVU220
	.loc 2 107 26 is_stmt 0 view .LVU221
	punpckldq	%xmm4, %xmm0
	.loc 2 109 15 view .LVU222
	movl	%r10d, %ebp
	.loc 2 107 26 view .LVU223
	movd	%r10d, %xmm1
	.loc 2 109 15 view .LVU224
	shrl	$26, %ebp
	.loc 2 109 8 view .LVU225
	addl	12(%rcx), %ebp
.LVL69:
	.loc 2 109 23 is_stmt 1 view .LVU226
	.loc 2 110 5 view .LVU227
	.loc 2 110 15 is_stmt 0 view .LVU228
	movl	%ebp, %edx
	.loc 2 107 26 view .LVU229
	movd	%ebp, %xmm3
	.loc 2 110 15 view .LVU230
	shrl	$26, %edx
	.loc 2 110 8 view .LVU231
	addl	16(%rcx), %edx
.LVL70:
	.loc 2 110 23 is_stmt 1 view .LVU232
	.loc 2 111 5 view .LVU233
	.loc 2 107 26 is_stmt 0 view .LVU234
	punpckldq	%xmm3, %xmm1
	.loc 2 111 15 view .LVU235
	movl	%edx, %esi
	.loc 2 107 26 view .LVU236
	punpcklqdq	%xmm1, %xmm0
	pcmpeqd	%xmm1, %xmm1
	.loc 2 111 15 view .LVU237
	shrl	$26, %esi
	.loc 2 107 26 view .LVU238
	psrld	$6, %xmm1
	.loc 2 111 8 view .LVU239
	addl	20(%rcx), %esi
.LVL71:
	.loc 2 111 23 is_stmt 1 view .LVU240
	.loc 2 112 5 view .LVU241
	.loc 2 112 15 is_stmt 0 view .LVU242
	movl	%esi, %r9d
	.loc 2 107 26 view .LVU243
	pand	%xmm1, %xmm0
	movd	%esi, %xmm3
	.loc 2 112 15 view .LVU244
	shrl	$26, %r9d
	.loc 2 112 8 view .LVU245
	addl	24(%rcx), %r9d
.LVL72:
	.loc 2 112 23 is_stmt 1 view .LVU246
	.loc 2 113 5 view .LVU247
	.loc 2 113 15 is_stmt 0 view .LVU248
	movl	%r9d, %ebx
	.loc 2 107 26 view .LVU249
	movd	%r9d, %xmm2
	.loc 2 113 15 view .LVU250
	shrl	$26, %ebx
	.loc 2 113 8 view .LVU251
	addl	28(%rcx), %ebx
.LVL73:
	.loc 2 113 23 is_stmt 1 view .LVU252
	.loc 2 114 5 view .LVU253
	.loc 2 120 13 is_stmt 0 view .LVU254
	movups	%xmm0, (%rax)
	.loc 2 107 26 view .LVU255
	movd	%edx, %xmm0
	.loc 2 114 15 view .LVU256
	movl	%ebx, %ecx
.LVL74:
	.loc 2 107 26 view .LVU257
	movd	%ebx, %xmm5
	punpckldq	%xmm3, %xmm0
	.loc 2 114 15 view .LVU258
	shrl	$26, %ecx
	.loc 2 107 26 view .LVU259
	punpckldq	%xmm5, %xmm2
	.loc 2 114 8 view .LVU260
	addl	32(%rax), %ecx
.LVL75:
	.loc 2 114 23 is_stmt 1 view .LVU261
	.loc 2 115 5 view .LVU262
	.loc 2 115 23 view .LVU263
	.loc 2 118 5 view .LVU264
	.loc 2 118 5 view .LVU265
	.loc 2 120 5 view .LVU266
	.loc 2 120 19 view .LVU267
	.loc 2 120 33 view .LVU268
	.loc 2 120 47 view .LVU269
	.loc 2 120 61 view .LVU270
	.loc 2 121 5 view .LVU271
	.loc 2 121 19 view .LVU272
	.loc 2 121 33 view .LVU273
	.loc 2 107 26 is_stmt 0 view .LVU274
	punpcklqdq	%xmm2, %xmm0
	.loc 2 115 26 view .LVU275
	movl	%ecx, %edx
.LVL76:
	.loc 2 115 15 view .LVU276
	shrl	$26, %ecx
.LVL77:
	.loc 2 107 26 view .LVU277
	pand	%xmm1, %xmm0
	.loc 2 115 26 view .LVU278
	andl	$67108863, %edx
.LVL78:
	.loc 2 115 8 view .LVU279
	addl	%r11d, %ecx
.LVL79:
	.loc 2 115 26 view .LVU280
	movl	%edx, 32(%rax)
	.loc 2 115 8 view .LVU281
	movl	%ecx, 36(%rax)
.LVL80:
	.loc 2 120 13 view .LVU282
	movups	%xmm0, 16(%rax)
.LVL81:
	.loc 2 121 47 is_stmt 1 view .LVU283
	.loc 2 121 61 view .LVU284
	.loc 2 127 1 is_stmt 0 view .LVU285
	popq	%rbx
.LCFI18:
	.cfi_restore 3
	.cfi_def_cfa_offset 32
.LVL82:
	.loc 2 127 1 view .LVU286
	popq	%rsi
.LCFI19:
	.cfi_restore 4
	.cfi_def_cfa_offset 24
.LVL83:
	.loc 2 127 1 view .LVU287
	popq	%rdi
.LCFI20:
	.cfi_restore 5
	.cfi_def_cfa_offset 16
.LVL84:
	.loc 2 127 1 view .LVU288
	popq	%rbp
.LCFI21:
	.cfi_restore 6
	.cfi_def_cfa_offset 8
.LVL85:
	.loc 2 127 1 view .LVU289
	ret
	.cfi_endproc
.LFE118:
	.seh_endproc
	.p2align 4
	.def	secp256k1_fe_normalize_var;	.scl	3;	.type	32;	.endef
	.seh_proc	secp256k1_fe_normalize_var
secp256k1_fe_normalize_var:
.LVL86:
.LFB119:
	.loc 2 129 57 is_stmt 1 view -0
	.cfi_startproc
	.loc 2 129 57 is_stmt 0 view .LVU291
	pushq	%r15
	.seh_pushreg	%r15
.LCFI22:
	.cfi_def_cfa_offset 16
	.cfi_offset 15, -16
	pushq	%r14
	.seh_pushreg	%r14
.LCFI23:
	.cfi_def_cfa_offset 24
	.cfi_offset 14, -24
	pushq	%r13
	.seh_pushreg	%r13
.LCFI24:
	.cfi_def_cfa_offset 32
	.cfi_offset 13, -32
	pushq	%r12
	.seh_pushreg	%r12
.LCFI25:
	.cfi_def_cfa_offset 40
	.cfi_offset 12, -40
	pushq	%rbp
	.seh_pushreg	%rbp
.LCFI26:
	.cfi_def_cfa_offset 48
	.cfi_offset 6, -48
	pushq	%rdi
	.seh_pushreg	%rdi
.LCFI27:
	.cfi_def_cfa_offset 56
	.cfi_offset 5, -56
	pushq	%rsi
	.seh_pushreg	%rsi
.LCFI28:
	.cfi_def_cfa_offset 64
	.cfi_offset 4, -64
	pushq	%rbx
	.seh_pushreg	%rbx
.LCFI29:
	.cfi_def_cfa_offset 72
	.cfi_offset 3, -72
	.seh_endprologue
	.loc 2 130 5 is_stmt 1 view .LVU292
.LVL87:
	.loc 2 131 70 is_stmt 0 view .LVU293
	movl	36(%rcx), %esi
.LVL88:
	.loc 2 134 5 is_stmt 1 view .LVU294
	.loc 2 135 5 view .LVU295
	.loc 2 135 14 is_stmt 0 view .LVU296
	movl	%esi, %r11d
	.loc 2 135 31 view .LVU297
	andl	$4194303, %esi
.LVL89:
	.loc 2 135 14 view .LVU298
	shrl	$22, %r11d
.LVL90:
	.loc 2 135 28 is_stmt 1 view .LVU299
	.loc 2 138 5 view .LVU300
	.loc 2 138 13 is_stmt 0 view .LVU301
	imull	$977, %r11d, %ebx
	.loc 2 138 8 view .LVU302
	addl	(%rcx), %ebx
.LVL91:
	.loc 2 138 24 is_stmt 1 view .LVU303
	.loc 2 138 33 is_stmt 0 view .LVU304
	sall	$6, %r11d
.LVL92:
	.loc 2 129 57 view .LVU305
	movq	%rcx, %rax
	.loc 2 139 15 view .LVU306
	movl	%ebx, %edx
	.loc 2 138 27 view .LVU307
	addl	4(%rcx), %r11d
.LVL93:
	.loc 2 139 5 is_stmt 1 view .LVU308
	.loc 2 139 26 is_stmt 0 view .LVU309
	andl	$67108863, %ebx
.LVL94:
	.loc 2 139 15 view .LVU310
	shrl	$26, %edx
.LVL95:
	.loc 2 154 43 view .LVU311
	leal	977(%rbx), %r14d
	.loc 2 139 8 view .LVU312
	addl	%edx, %r11d
.LVL96:
	.loc 2 139 23 is_stmt 1 view .LVU313
	.loc 2 140 5 view .LVU314
	.loc 2 140 15 is_stmt 0 view .LVU315
	movl	%r11d, %edx
	.loc 2 140 26 view .LVU316
	andl	$67108863, %r11d
.LVL97:
	.loc 2 140 15 view .LVU317
	shrl	$26, %edx
.LVL98:
	.loc 2 140 8 view .LVU318
	addl	8(%rcx), %edx
.LVL99:
	.loc 2 140 23 is_stmt 1 view .LVU319
	.loc 2 141 5 view .LVU320
	.loc 2 141 15 is_stmt 0 view .LVU321
	movl	%edx, %r10d
	.loc 2 141 26 view .LVU322
	movl	%edx, %edi
	.loc 2 141 15 view .LVU323
	shrl	$26, %r10d
	.loc 2 141 8 view .LVU324
	addl	12(%rcx), %r10d
.LVL100:
	.loc 2 141 23 is_stmt 1 view .LVU325
	.loc 2 141 26 is_stmt 0 view .LVU326
	andl	$67108863, %edi
.LVL101:
	.loc 2 141 42 is_stmt 1 view .LVU327
	.loc 2 142 5 view .LVU328
	.loc 2 142 15 is_stmt 0 view .LVU329
	movl	%r10d, %ebp
	.loc 2 142 26 view .LVU330
	andl	$67108863, %r10d
.LVL102:
	.loc 2 142 15 view .LVU331
	shrl	$26, %ebp
.LVL103:
	.loc 2 142 8 view .LVU332
	addl	16(%rcx), %ebp
.LVL104:
	.loc 2 142 23 is_stmt 1 view .LVU333
	.loc 2 142 42 view .LVU334
	.loc 2 142 44 is_stmt 0 view .LVU335
	andl	%r10d, %edx
.LVL105:
	.loc 2 143 5 is_stmt 1 view .LVU336
	.loc 2 143 15 is_stmt 0 view .LVU337
	movl	%ebp, %r9d
	.loc 2 143 26 view .LVU338
	andl	$67108863, %ebp
.LVL106:
	.loc 2 143 15 view .LVU339
	shrl	$26, %r9d
.LVL107:
	.loc 2 143 8 view .LVU340
	addl	20(%rcx), %r9d
.LVL108:
	.loc 2 143 23 is_stmt 1 view .LVU341
	.loc 2 143 42 view .LVU342
	.loc 2 143 44 is_stmt 0 view .LVU343
	andl	%ebp, %edx
.LVL109:
	.loc 2 144 5 is_stmt 1 view .LVU344
	.loc 2 144 15 is_stmt 0 view .LVU345
	movl	%r9d, %r8d
	.loc 2 144 26 view .LVU346
	andl	$67108863, %r9d
.LVL110:
	.loc 2 144 15 view .LVU347
	shrl	$26, %r8d
.LVL111:
	.loc 2 144 8 view .LVU348
	addl	24(%rcx), %r8d
.LVL112:
	.loc 2 144 23 is_stmt 1 view .LVU349
	.loc 2 144 42 view .LVU350
	.loc 2 144 44 is_stmt 0 view .LVU351
	andl	%r9d, %edx
.LVL113:
	.loc 2 145 5 is_stmt 1 view .LVU352
	.loc 2 145 15 is_stmt 0 view .LVU353
	movl	%r8d, %ecx
.LVL114:
	.loc 2 145 26 view .LVU354
	andl	$67108863, %r8d
.LVL115:
	.loc 2 145 15 view .LVU355
	shrl	$26, %ecx
.LVL116:
	.loc 2 145 8 view .LVU356
	addl	28(%rax), %ecx
.LVL117:
	.loc 2 145 23 is_stmt 1 view .LVU357
	.loc 2 145 42 view .LVU358
	.loc 2 145 44 is_stmt 0 view .LVU359
	andl	%r8d, %edx
.LVL118:
	.loc 2 146 5 is_stmt 1 view .LVU360
	.loc 2 146 15 is_stmt 0 view .LVU361
	movl	%ecx, %r12d
	shrl	$26, %r12d
	.loc 2 146 8 view .LVU362
	addl	32(%rax), %r12d
.LVL119:
	.loc 2 146 23 is_stmt 1 view .LVU363
	.loc 2 146 26 is_stmt 0 view .LVU364
	andl	$67108863, %ecx
.LVL120:
	.loc 2 146 42 is_stmt 1 view .LVU365
	.loc 2 154 43 is_stmt 0 view .LVU366
	shrl	$26, %r14d
	.loc 2 147 15 view .LVU367
	movl	%r12d, %r13d
	.loc 2 146 44 view .LVU368
	andl	%ecx, %edx
.LVL121:
	.loc 2 147 5 is_stmt 1 view .LVU369
	.loc 2 154 25 is_stmt 0 view .LVU370
	leal	64(%r11,%r14), %r14d
	.loc 2 147 15 view .LVU371
	shrl	$26, %r13d
	.loc 2 147 8 view .LVU372
	addl	%r13d, %esi
.LVL122:
	.loc 2 147 23 is_stmt 1 view .LVU373
	.loc 2 147 26 is_stmt 0 view .LVU374
	movl	%r12d, %r13d
	.loc 2 147 44 view .LVU375
	andl	%edx, %r12d
.LVL123:
	.loc 2 147 26 view .LVU376
	andl	$67108863, %r13d
.LVL124:
	.loc 2 147 42 is_stmt 1 view .LVU377
	.loc 2 150 5 view .LVU378
	.loc 2 150 5 view .LVU379
	.loc 2 153 5 view .LVU380
	.loc 2 156 5 view .LVU381
	.loc 2 153 43 is_stmt 0 view .LVU382
	cmpl	$67108863, %r12d
	sete	%r12b
	cmpl	$4194303, %esi
	sete	%dl
.LVL125:
	.loc 2 153 43 view .LVU383
	andl	%edx, %r12d
	.loc 2 154 9 view .LVU384
	xorl	%edx, %edx
	cmpl	$67108863, %r14d
	seta	%dl
	andl	%r12d, %edx
	.loc 2 153 13 view .LVU385
	movl	%esi, %r12d
	shrl	$22, %r12d
	.loc 2 156 8 view .LVU386
	orl	%r12d, %edx
	je	.L5
	.loc 2 157 9 is_stmt 1 view .LVU387
.LVL126:
	.loc 2 157 24 view .LVU388
	.loc 2 158 9 view .LVU389
	.loc 2 158 27 view .LVU390
	.loc 2 159 19 is_stmt 0 view .LVU391
	movl	%r14d, %edx
	.loc 2 158 30 view .LVU392
	addl	$977, %ebx
	.loc 2 159 30 view .LVU393
	andl	$67108863, %r14d
.LVL127:
	.loc 2 159 19 view .LVU394
	shrl	$26, %edx
.LVL128:
	.loc 2 158 30 view .LVU395
	andl	$67108863, %ebx
.LVL129:
	.loc 2 159 9 is_stmt 1 view .LVU396
	.loc 2 159 30 is_stmt 0 view .LVU397
	movl	%r14d, %r11d
.LVL130:
	.loc 2 159 12 view .LVU398
	addl	%edx, %edi
.LVL131:
	.loc 2 159 27 is_stmt 1 view .LVU399
	.loc 2 160 9 view .LVU400
	.loc 2 160 19 is_stmt 0 view .LVU401
	movl	%edi, %edx
	.loc 2 160 30 view .LVU402
	andl	$67108863, %edi
.LVL132:
	.loc 2 160 19 view .LVU403
	shrl	$26, %edx
.LVL133:
	.loc 2 160 12 view .LVU404
	addl	%edx, %r10d
.LVL134:
	.loc 2 160 27 is_stmt 1 view .LVU405
	.loc 2 161 9 view .LVU406
	.loc 2 161 19 is_stmt 0 view .LVU407
	movl	%r10d, %edx
	.loc 2 161 30 view .LVU408
	andl	$67108863, %r10d
.LVL135:
	.loc 2 161 19 view .LVU409
	shrl	$26, %edx
.LVL136:
	.loc 2 161 12 view .LVU410
	addl	%edx, %ebp
.LVL137:
	.loc 2 161 27 is_stmt 1 view .LVU411
	.loc 2 162 9 view .LVU412
	.loc 2 162 19 is_stmt 0 view .LVU413
	movl	%ebp, %edx
	.loc 2 162 30 view .LVU414
	andl	$67108863, %ebp
.LVL138:
	.loc 2 162 19 view .LVU415
	shrl	$26, %edx
.LVL139:
	.loc 2 162 12 view .LVU416
	addl	%edx, %r9d
.LVL140:
	.loc 2 162 27 is_stmt 1 view .LVU417
	.loc 2 163 9 view .LVU418
	.loc 2 163 19 is_stmt 0 view .LVU419
	movl	%r9d, %edx
	.loc 2 163 30 view .LVU420
	andl	$67108863, %r9d
.LVL141:
	.loc 2 163 19 view .LVU421
	shrl	$26, %edx
.LVL142:
	.loc 2 163 12 view .LVU422
	addl	%edx, %r8d
.LVL143:
	.loc 2 163 27 is_stmt 1 view .LVU423
	.loc 2 164 9 view .LVU424
	.loc 2 164 19 is_stmt 0 view .LVU425
	movl	%r8d, %edx
	.loc 2 164 30 view .LVU426
	andl	$67108863, %r8d
.LVL144:
	.loc 2 164 19 view .LVU427
	shrl	$26, %edx
.LVL145:
	.loc 2 164 12 view .LVU428
	addl	%edx, %ecx
.LVL146:
	.loc 2 164 27 is_stmt 1 view .LVU429
	.loc 2 165 9 view .LVU430
	.loc 2 165 19 is_stmt 0 view .LVU431
	movl	%ecx, %edx
	.loc 2 165 30 view .LVU432
	andl	$67108863, %ecx
.LVL147:
	.loc 2 165 19 view .LVU433
	shrl	$26, %edx
.LVL148:
	.loc 2 165 12 view .LVU434
	addl	%r13d, %edx
.LVL149:
	.loc 2 165 27 is_stmt 1 view .LVU435
	.loc 2 166 9 view .LVU436
	.loc 2 166 19 is_stmt 0 view .LVU437
	movl	%edx, %r12d
	.loc 2 166 30 view .LVU438
	andl	$67108863, %edx
.LVL150:
	.loc 2 166 19 view .LVU439
	shrl	$26, %r12d
.LVL151:
	.loc 2 166 30 view .LVU440
	movl	%edx, %r13d
.LVL152:
	.loc 2 166 12 view .LVU441
	addl	%r12d, %esi
.LVL153:
	.loc 2 166 27 is_stmt 1 view .LVU442
	.loc 2 169 9 view .LVU443
	.loc 2 169 9 view .LVU444
	.loc 2 172 9 view .LVU445
	.loc 2 172 12 is_stmt 0 view .LVU446
	andl	$4194303, %esi
.LVL154:
.L5:
	.loc 2 175 5 is_stmt 1 view .LVU447
	.loc 2 175 13 is_stmt 0 view .LVU448
	movl	%ebx, (%rax)
.LVL155:
	.loc 2 175 19 is_stmt 1 view .LVU449
	.loc 2 175 27 is_stmt 0 view .LVU450
	movl	%r11d, 4(%rax)
	.loc 2 175 33 is_stmt 1 view .LVU451
	.loc 2 175 41 is_stmt 0 view .LVU452
	movl	%edi, 8(%rax)
	.loc 2 175 47 is_stmt 1 view .LVU453
	.loc 2 175 55 is_stmt 0 view .LVU454
	movl	%r10d, 12(%rax)
	.loc 2 175 61 is_stmt 1 view .LVU455
	.loc 2 175 69 is_stmt 0 view .LVU456
	movl	%ebp, 16(%rax)
	.loc 2 176 5 is_stmt 1 view .LVU457
	.loc 2 176 13 is_stmt 0 view .LVU458
	movl	%r9d, 20(%rax)
	.loc 2 176 19 is_stmt 1 view .LVU459
	.loc 2 176 27 is_stmt 0 view .LVU460
	movl	%r8d, 24(%rax)
	.loc 2 176 33 is_stmt 1 view .LVU461
	.loc 2 176 41 is_stmt 0 view .LVU462
	movl	%ecx, 28(%rax)
	.loc 2 176 47 is_stmt 1 view .LVU463
	.loc 2 176 55 is_stmt 0 view .LVU464
	movl	%r13d, 32(%rax)
	.loc 2 176 61 is_stmt 1 view .LVU465
	.loc 2 176 69 is_stmt 0 view .LVU466
	movl	%esi, 36(%rax)
	.loc 2 183 1 view .LVU467
	popq	%rbx
.LCFI30:
	.cfi_restore 3
	.cfi_def_cfa_offset 64
.LVL156:
	.loc 2 183 1 view .LVU468
	popq	%rsi
.LCFI31:
	.cfi_restore 4
	.cfi_def_cfa_offset 56
.LVL157:
	.loc 2 183 1 view .LVU469
	popq	%rdi
.LCFI32:
	.cfi_restore 5
	.cfi_def_cfa_offset 48
.LVL158:
	.loc 2 183 1 view .LVU470
	popq	%rbp
.LCFI33:
	.cfi_restore 6
	.cfi_def_cfa_offset 40
.LVL159:
	.loc 2 183 1 view .LVU471
	popq	%r12
.LCFI34:
	.cfi_restore 12
	.cfi_def_cfa_offset 32
	popq	%r13
.LCFI35:
	.cfi_restore 13
	.cfi_def_cfa_offset 24
.LVL160:
	.loc 2 183 1 view .LVU472
	popq	%r14
.LCFI36:
	.cfi_restore 14
	.cfi_def_cfa_offset 16
	popq	%r15
.LCFI37:
	.cfi_restore 15
	.cfi_def_cfa_offset 8
	ret
	.cfi_endproc
.LFE119:
	.seh_endproc
	.p2align 4
	.def	secp256k1_fe_normalizes_to_zero;	.scl	3;	.type	32;	.endef
	.seh_proc	secp256k1_fe_normalizes_to_zero
secp256k1_fe_normalizes_to_zero:
.LVL161:
.LFB120:
	.loc 2 185 61 is_stmt 1 view -0
	.cfi_startproc
	.loc 2 185 61 is_stmt 0 view .LVU474
	pushq	%rbp
	.seh_pushreg	%rbp
.LCFI38:
	.cfi_def_cfa_offset 16
	.cfi_offset 6, -16
	pushq	%rdi
	.seh_pushreg	%rdi
.LCFI39:
	.cfi_def_cfa_offset 24
	.cfi_offset 5, -24
	pushq	%rsi
	.seh_pushreg	%rsi
.LCFI40:
	.cfi_def_cfa_offset 32
	.cfi_offset 4, -32
	pushq	%rbx
	.seh_pushreg	%rbx
.LCFI41:
	.cfi_def_cfa_offset 40
	.cfi_offset 3, -40
	.seh_endprologue
	.loc 2 186 5 is_stmt 1 view .LVU475
.LVL162:
	.loc 2 187 70 is_stmt 0 view .LVU476
	movl	36(%rcx), %edx
.LVL163:
	.loc 2 190 5 is_stmt 1 view .LVU477
	.loc 2 193 5 view .LVU478
	.loc 2 193 14 is_stmt 0 view .LVU479
	movl	%edx, %eax
	.loc 2 193 31 view .LVU480
	andl	$4194303, %edx
.LVL164:
	.loc 2 193 14 view .LVU481
	shrl	$22, %eax
.LVL165:
	.loc 2 193 28 is_stmt 1 view .LVU482
	.loc 2 196 5 view .LVU483
	.loc 2 196 13 is_stmt 0 view .LVU484
	imull	$977, %eax, %edi
	.loc 2 196 8 view .LVU485
	addl	(%rcx), %edi
.LVL166:
	.loc 2 196 24 is_stmt 1 view .LVU486
	.loc 2 196 33 is_stmt 0 view .LVU487
	sall	$6, %eax
.LVL167:
	.loc 2 196 27 view .LVU488
	addl	4(%rcx), %eax
.LVL168:
	.loc 2 197 5 is_stmt 1 view .LVU489
	.loc 2 197 15 is_stmt 0 view .LVU490
	movl	%edi, %r8d
	shrl	$26, %r8d
	.loc 2 197 8 view .LVU491
	addl	%r8d, %eax
.LVL169:
	.loc 2 197 23 is_stmt 1 view .LVU492
	.loc 2 197 42 view .LVU493
	.loc 2 197 52 view .LVU494
	.loc 2 198 5 view .LVU495
	.loc 2 198 15 is_stmt 0 view .LVU496
	movl	%eax, %ebp
	shrl	$26, %ebp
	.loc 2 198 8 view .LVU497
	addl	8(%rcx), %ebp
.LVL170:
	.loc 2 198 23 is_stmt 1 view .LVU498
	.loc 2 198 42 view .LVU499
	.loc 2 198 52 view .LVU500
	.loc 2 199 5 view .LVU501
	.loc 2 199 15 is_stmt 0 view .LVU502
	movl	%ebp, %esi
	shrl	$26, %esi
	.loc 2 199 8 view .LVU503
	addl	12(%rcx), %esi
.LVL171:
	.loc 2 199 23 is_stmt 1 view .LVU504
	.loc 2 199 42 view .LVU505
	.loc 2 199 52 view .LVU506
	.loc 2 200 5 view .LVU507
	.loc 2 200 15 is_stmt 0 view .LVU508
	movl	%esi, %ebx
	shrl	$26, %ebx
	.loc 2 200 8 view .LVU509
	addl	16(%rcx), %ebx
.LVL172:
	.loc 2 200 23 is_stmt 1 view .LVU510
	.loc 2 200 42 view .LVU511
	.loc 2 200 52 view .LVU512
	.loc 2 201 5 view .LVU513
	.loc 2 201 15 is_stmt 0 view .LVU514
	movl	%ebx, %r11d
	shrl	$26, %r11d
	.loc 2 201 8 view .LVU515
	addl	20(%rcx), %r11d
.LVL173:
	.loc 2 201 23 is_stmt 1 view .LVU516
	.loc 2 201 42 view .LVU517
	.loc 2 201 52 view .LVU518
	.loc 2 202 5 view .LVU519
	.loc 2 202 15 is_stmt 0 view .LVU520
	movl	%r11d, %r10d
	shrl	$26, %r10d
	.loc 2 202 8 view .LVU521
	addl	24(%rcx), %r10d
.LVL174:
	.loc 2 202 23 is_stmt 1 view .LVU522
	.loc 2 202 42 view .LVU523
	.loc 2 202 52 view .LVU524
	.loc 2 203 5 view .LVU525
	.loc 2 203 15 is_stmt 0 view .LVU526
	movl	%r10d, %r9d
	shrl	$26, %r9d
	.loc 2 203 8 view .LVU527
	addl	28(%rcx), %r9d
.LVL175:
	.loc 2 203 23 is_stmt 1 view .LVU528
	.loc 2 203 42 view .LVU529
	.loc 2 203 52 view .LVU530
	.loc 2 204 5 view .LVU531
	.loc 2 204 15 is_stmt 0 view .LVU532
	movl	%r9d, %r8d
	shrl	$26, %r8d
	.loc 2 204 8 view .LVU533
	addl	32(%rcx), %r8d
.LVL176:
	.loc 2 204 23 is_stmt 1 view .LVU534
	.loc 2 204 42 view .LVU535
	.loc 2 204 52 view .LVU536
	.loc 2 205 5 view .LVU537
	.loc 2 205 15 is_stmt 0 view .LVU538
	movl	%r8d, %ecx
.LVL177:
	.loc 2 205 15 view .LVU539
	shrl	$26, %ecx
	.loc 2 205 8 view .LVU540
	addl	%edx, %ecx
.LVL178:
	.loc 2 205 23 is_stmt 1 view .LVU541
	.loc 2 205 42 view .LVU542
	.loc 2 205 45 is_stmt 0 view .LVU543
	movl	%edi, %edx
	orl	%eax, %edx
	orl	%ebp, %edx
	orl	%esi, %edx
	orl	%ebx, %edx
.LVL179:
	.loc 2 205 45 view .LVU544
	orl	%r11d, %edx
.LVL180:
	.loc 2 205 45 view .LVU545
	orl	%r10d, %edx
	orl	%r9d, %edx
	orl	%r8d, %edx
	andl	$67108863, %edx
.LVL181:
	.loc 2 205 52 is_stmt 1 view .LVU546
	.loc 2 206 42 view .LVU547
	.loc 2 206 52 view .LVU548
	.loc 2 209 5 view .LVU549
	.loc 2 209 5 view .LVU550
	.loc 2 211 5 view .LVU551
	.loc 2 198 26 is_stmt 0 view .LVU552
	andl	$67108863, %eax
.LVL182:
	.loc 2 197 26 view .LVU553
	andl	$67108863, %edi
.LVL183:
	.loc 2 198 61 view .LVU554
	xorl	$64, %eax
.LVL184:
	.loc 2 197 56 view .LVU555
	xorl	$976, %edi
.LVL185:
	.loc 2 211 22 view .LVU556
	andl	%ebp, %eax
.LVL186:
	.loc 2 211 22 view .LVU557
	andl	%edi, %eax
	andl	%esi, %eax
	andl	%ebx, %eax
	andl	%r11d, %eax
	andl	%r10d, %eax
	andl	%r9d, %eax
	andl	%r8d, %eax
	.loc 2 206 61 view .LVU558
	movl	%ecx, %r8d
.LVL187:
	.loc 2 206 61 view .LVU559
	xorl	$62914560, %r8d
	.loc 2 211 22 view .LVU560
	andl	%r8d, %eax
	cmpl	$67108863, %eax
	sete	%al
	orl	%ecx, %edx
.LVL188:
	.loc 2 211 22 view .LVU561
	sete	%dl
	orl	%edx, %eax
	movzbl	%al, %eax
	.loc 2 212 1 view .LVU562
	popq	%rbx
.LCFI42:
	.cfi_restore 3
	.cfi_def_cfa_offset 32
.LVL189:
	.loc 2 212 1 view .LVU563
	popq	%rsi
.LCFI43:
	.cfi_restore 4
	.cfi_def_cfa_offset 24
.LVL190:
	.loc 2 212 1 view .LVU564
	popq	%rdi
.LCFI44:
	.cfi_restore 5
	.cfi_def_cfa_offset 16
.LVL191:
	.loc 2 212 1 view .LVU565
	popq	%rbp
.LCFI45:
	.cfi_restore 6
	.cfi_def_cfa_offset 8
.LVL192:
	.loc 2 212 1 view .LVU566
	ret
	.cfi_endproc
.LFE120:
	.seh_endproc
	.p2align 4
	.def	secp256k1_fe_normalizes_to_zero_var;	.scl	3;	.type	32;	.endef
	.seh_proc	secp256k1_fe_normalizes_to_zero_var
secp256k1_fe_normalizes_to_zero_var:
.LVL193:
.LFB121:
	.loc 2 214 65 is_stmt 1 view -0
	.cfi_startproc
	.loc 2 214 65 is_stmt 0 view .LVU568
	pushq	%r14
	.seh_pushreg	%r14
.LCFI46:
	.cfi_def_cfa_offset 16
	.cfi_offset 14, -16
	pushq	%rbp
	.seh_pushreg	%rbp
.LCFI47:
	.cfi_def_cfa_offset 24
	.cfi_offset 6, -24
	pushq	%rdi
	.seh_pushreg	%rdi
.LCFI48:
	.cfi_def_cfa_offset 32
	.cfi_offset 5, -32
	pushq	%rsi
	.seh_pushreg	%rsi
.LCFI49:
	.cfi_def_cfa_offset 40
	.cfi_offset 4, -40
	pushq	%rbx
	.seh_pushreg	%rbx
.LCFI50:
	.cfi_def_cfa_offset 48
	.cfi_offset 3, -48
	.seh_endprologue
	.loc 2 215 5 is_stmt 1 view .LVU569
	.loc 2 216 5 view .LVU570
	.loc 2 217 5 view .LVU571
	.loc 2 219 5 view .LVU572
.LVL194:
	.loc 2 220 5 view .LVU573
	.loc 2 220 8 is_stmt 0 view .LVU574
	movl	36(%rcx), %r9d
.LVL195:
	.loc 2 223 5 is_stmt 1 view .LVU575
	.loc 2 223 7 is_stmt 0 view .LVU576
	movl	%r9d, %eax
	shrl	$22, %eax
.LVL196:
	.loc 2 226 5 is_stmt 1 view .LVU577
	.loc 2 226 13 is_stmt 0 view .LVU578
	imull	$977, %eax, %edx
	.loc 2 226 8 view .LVU579
	addl	(%rcx), %edx
.LVL197:
	.loc 2 229 5 is_stmt 1 view .LVU580
	.loc 2 230 5 view .LVU581
	.loc 2 233 5 view .LVU582
	.loc 2 233 8 is_stmt 0 view .LVU583
	movl	%edx, %edi
	andl	$67108863, %edi
.LVL198:
	.loc 2 233 8 view .LVU584
	je	.L14
	.loc 2 234 16 view .LVU585
	xorl	%r8d, %r8d
	.loc 2 233 8 view .LVU586
	cmpl	$67107887, %edi
	je	.L14
	.loc 2 264 1 view .LVU587
	movl	%r8d, %eax
.LVL199:
	.loc 2 264 1 view .LVU588
	popq	%rbx
.LCFI51:
	.cfi_remember_state
	.cfi_restore 3
	.cfi_def_cfa_offset 40
	popq	%rsi
.LCFI52:
	.cfi_restore 4
	.cfi_def_cfa_offset 32
	popq	%rdi
.LCFI53:
	.cfi_restore 5
	.cfi_def_cfa_offset 24
.LVL200:
	.loc 2 264 1 view .LVU589
	popq	%rbp
.LCFI54:
	.cfi_restore 6
	.cfi_def_cfa_offset 16
	popq	%r14
.LCFI55:
	.cfi_restore 14
	.cfi_def_cfa_offset 8
	ret
.LVL201:
	.p2align 4,,10
	.p2align 3
.L14:
.LCFI56:
	.cfi_restore_state
	.loc 2 237 5 is_stmt 1 view .LVU590
	.loc 2 238 5 view .LVU591
	.loc 2 239 5 view .LVU592
	.loc 2 240 5 view .LVU593
	.loc 2 241 5 view .LVU594
	.loc 2 242 5 view .LVU595
	.loc 2 243 5 view .LVU596
	.loc 2 244 5 view .LVU597
	.loc 2 246 5 view .LVU598
	.loc 2 249 15 is_stmt 0 view .LVU599
	movl	%edx, %r8d
	.loc 2 247 14 view .LVU600
	sall	$6, %eax
.LVL202:
	.loc 2 247 8 view .LVU601
	addl	4(%rcx), %eax
	.loc 2 246 8 view .LVU602
	movl	%r9d, %r14d
	.loc 2 249 15 view .LVU603
	shrl	$26, %r8d
	.loc 2 246 8 view .LVU604
	andl	$4194303, %r14d
.LVL203:
	.loc 2 247 5 is_stmt 1 view .LVU605
	.loc 2 249 5 view .LVU606
	.loc 2 249 8 is_stmt 0 view .LVU607
	addl	%r8d, %eax
.LVL204:
	.loc 2 250 5 is_stmt 1 view .LVU608
	.loc 2 250 15 is_stmt 0 view .LVU609
	movl	%eax, %ebp
	.loc 2 257 45 view .LVU610
	orl	%eax, %edx
.LVL205:
	.loc 2 250 26 view .LVU611
	andl	$67108863, %eax
.LVL206:
	.loc 2 250 15 view .LVU612
	shrl	$26, %ebp
.LVL207:
	.loc 2 250 8 view .LVU613
	addl	8(%rcx), %ebp
.LVL208:
	.loc 2 250 23 is_stmt 1 view .LVU614
	.loc 2 250 42 view .LVU615
	.loc 2 250 52 view .LVU616
	.loc 2 251 5 view .LVU617
	.loc 2 250 61 is_stmt 0 view .LVU618
	xorl	$64, %eax
	.loc 2 251 15 view .LVU619
	movl	%ebp, %esi
	.loc 2 257 45 view .LVU620
	orl	%ebp, %edx
	.loc 2 251 15 view .LVU621
	shrl	$26, %esi
	.loc 2 251 8 view .LVU622
	addl	12(%rcx), %esi
.LVL209:
	.loc 2 251 23 is_stmt 1 view .LVU623
	.loc 2 251 42 view .LVU624
	.loc 2 251 52 view .LVU625
	.loc 2 252 5 view .LVU626
	.loc 2 252 15 is_stmt 0 view .LVU627
	movl	%esi, %ebx
	.loc 2 257 45 view .LVU628
	orl	%esi, %edx
	.loc 2 252 15 view .LVU629
	shrl	$26, %ebx
	.loc 2 252 8 view .LVU630
	addl	16(%rcx), %ebx
.LVL210:
	.loc 2 252 23 is_stmt 1 view .LVU631
	.loc 2 252 42 view .LVU632
	.loc 2 252 52 view .LVU633
	.loc 2 253 5 view .LVU634
	.loc 2 253 15 is_stmt 0 view .LVU635
	movl	%ebx, %r11d
	.loc 2 257 45 view .LVU636
	orl	%ebx, %edx
	.loc 2 253 15 view .LVU637
	shrl	$26, %r11d
	.loc 2 253 8 view .LVU638
	addl	20(%rcx), %r11d
.LVL211:
	.loc 2 253 23 is_stmt 1 view .LVU639
	.loc 2 253 42 view .LVU640
	.loc 2 253 52 view .LVU641
	.loc 2 254 5 view .LVU642
	.loc 2 254 15 is_stmt 0 view .LVU643
	movl	%r11d, %r10d
	.loc 2 257 45 view .LVU644
	orl	%r11d, %edx
	.loc 2 254 15 view .LVU645
	shrl	$26, %r10d
	.loc 2 254 8 view .LVU646
	addl	24(%rcx), %r10d
.LVL212:
	.loc 2 254 23 is_stmt 1 view .LVU647
	.loc 2 254 42 view .LVU648
	.loc 2 254 52 view .LVU649
	.loc 2 255 5 view .LVU650
	.loc 2 255 15 is_stmt 0 view .LVU651
	movl	%r10d, %r9d
.LVL213:
	.loc 2 257 45 view .LVU652
	orl	%r10d, %edx
	.loc 2 255 15 view .LVU653
	shrl	$26, %r9d
	.loc 2 255 8 view .LVU654
	addl	28(%rcx), %r9d
.LVL214:
	.loc 2 255 23 is_stmt 1 view .LVU655
	.loc 2 255 42 view .LVU656
	.loc 2 255 52 view .LVU657
	.loc 2 256 5 view .LVU658
	.loc 2 256 15 is_stmt 0 view .LVU659
	movl	%r9d, %r8d
	.loc 2 257 45 view .LVU660
	orl	%r9d, %edx
	.loc 2 256 15 view .LVU661
	shrl	$26, %r8d
	.loc 2 256 8 view .LVU662
	addl	32(%rcx), %r8d
.LVL215:
	.loc 2 256 23 is_stmt 1 view .LVU663
	.loc 2 256 42 view .LVU664
	.loc 2 256 52 view .LVU665
	.loc 2 257 5 view .LVU666
	.loc 2 257 15 is_stmt 0 view .LVU667
	movl	%r8d, %ecx
.LVL216:
	.loc 2 257 45 view .LVU668
	orl	%r8d, %edx
	.loc 2 257 15 view .LVU669
	shrl	$26, %ecx
	.loc 2 257 45 view .LVU670
	andl	$67108863, %edx
	.loc 2 257 8 view .LVU671
	addl	%r14d, %ecx
.LVL217:
	.loc 2 257 23 is_stmt 1 view .LVU672
	.loc 2 257 42 view .LVU673
	.loc 2 257 52 view .LVU674
	.loc 2 258 42 view .LVU675
	.loc 2 258 52 view .LVU676
	.loc 2 261 5 view .LVU677
	.loc 2 261 5 view .LVU678
	.loc 2 263 5 view .LVU679
	.loc 2 263 22 is_stmt 0 view .LVU680
	andl	%ebp, %eax
	.loc 2 230 8 view .LVU681
	xorl	$976, %edi
	.loc 2 263 22 view .LVU682
	andl	%edi, %eax
	andl	%esi, %eax
	andl	%ebx, %eax
	andl	%r11d, %eax
	andl	%r10d, %eax
	andl	%r9d, %eax
	andl	%r8d, %eax
	.loc 2 258 61 view .LVU683
	movl	%ecx, %r8d
.LVL218:
	.loc 2 258 61 view .LVU684
	xorl	$62914560, %r8d
	.loc 2 263 22 view .LVU685
	andl	%r8d, %eax
	cmpl	$67108863, %eax
	sete	%r8b
	orl	%ecx, %edx
.LVL219:
	.loc 2 263 22 view .LVU686
	sete	%al
	orl	%eax, %r8d
	movzbl	%r8b, %r8d
	.loc 2 264 1 view .LVU687
	movl	%r8d, %eax
	popq	%rbx
.LCFI57:
	.cfi_restore 3
	.cfi_def_cfa_offset 40
.LVL220:
	.loc 2 264 1 view .LVU688
	popq	%rsi
.LCFI58:
	.cfi_restore 4
	.cfi_def_cfa_offset 32
.LVL221:
	.loc 2 264 1 view .LVU689
	popq	%rdi
.LCFI59:
	.cfi_restore 5
	.cfi_def_cfa_offset 24
	popq	%rbp
.LCFI60:
	.cfi_restore 6
	.cfi_def_cfa_offset 16
.LVL222:
	.loc 2 264 1 view .LVU690
	popq	%r14
.LCFI61:
	.cfi_restore 14
	.cfi_def_cfa_offset 8
	ret
	.cfi_endproc
.LFE121:
	.seh_endproc
	.p2align 4
	.def	secp256k1_fe_set_b32;	.scl	3;	.type	32;	.endef
	.seh_proc	secp256k1_fe_set_b32
secp256k1_fe_set_b32:
.LVL223:
.LFB127:
	.loc 2 323 74 is_stmt 1 view -0
	.cfi_startproc
	.loc 2 323 74 is_stmt 0 view .LVU692
	pushq	%rsi
	.seh_pushreg	%rsi
.LCFI62:
	.cfi_def_cfa_offset 16
	.cfi_offset 4, -16
	pushq	%rbx
	.seh_pushreg	%rbx
.LCFI63:
	.cfi_def_cfa_offset 24
	.cfi_offset 3, -24
	.seh_endprologue
	.loc 2 325 13 view .LVU693
	pxor	%xmm0, %xmm0
	xorl	%esi, %esi
	xorl	%r9d, %r9d
	xorl	%r8d, %r8d
	.loc 2 326 43 view .LVU694
	movq	$0, 32(%rcx)
	.loc 2 323 74 view .LVU695
	movq	%rcx, %r11
	.loc 2 324 5 is_stmt 1 view .LVU696
	.loc 2 325 5 view .LVU697
	.loc 2 326 5 view .LVU698
	leaq	31(%rdx), %rbx
	.loc 2 325 13 is_stmt 0 view .LVU699
	movups	%xmm0, (%rcx)
	movups	%xmm0, 16(%rcx)
	.loc 2 327 5 is_stmt 1 view .LVU700
.LVL224:
	.loc 2 327 16 discriminator 1 view .LVU701
	.p2align 4
	.p2align 3
.L19:
.LBB686:
	.loc 2 329 20 discriminator 1 view .LVU702
.LBB687:
	.loc 2 330 13 view .LVU703
	.loc 2 331 13 view .LVU704
	.loc 2 332 13 view .LVU705
	.loc 2 331 29 is_stmt 0 view .LVU706
	leal	(%rsi,%rsi), %edx
	.loc 2 332 27 view .LVU707
	movzbl	(%rbx), %eax
	leal	1(%rsi), %r10d
	.loc 2 331 29 view .LVU708
	movq	%rdx, %rcx
	.loc 2 331 17 view .LVU709
	imulq	$1321528399, %rdx, %rdx
	.loc 2 330 17 view .LVU710
	imulq	$1321528399, %r8, %r8
	.loc 2 332 27 view .LVU711
	andl	$3, %eax
	.loc 2 331 17 view .LVU712
	shrq	$35, %rdx
	imull	$26, %edx, %edx
	.loc 2 332 24 view .LVU713
	shrq	$34, %r8
	.loc 2 331 17 view .LVU714
	subl	%edx, %ecx
	.loc 2 332 64 view .LVU715
	sall	%cl, %eax
	.loc 2 332 24 view .LVU716
	orl	%r9d, %eax
	movl	$2, %r9d
	movl	%eax, (%r11,%r8,4)
.LBE687:
	.loc 2 329 25 is_stmt 1 discriminator 3 view .LVU717
.LVL225:
	.loc 2 329 20 discriminator 1 view .LVU718
.L20:
.LBB688:
	.loc 2 330 13 view .LVU719
	.loc 2 332 40 is_stmt 0 view .LVU720
	movzbl	(%rbx), %eax
	.loc 2 332 47 view .LVU721
	movl	%r9d, %ecx
	.loc 2 331 29 view .LVU722
	leal	(%r10,%r10), %edx
	.loc 2 330 17 view .LVU723
	movl	%r10d, %r8d
	imulq	$1321528399, %r8, %r8
.LVL226:
	.loc 2 331 13 is_stmt 1 view .LVU724
	.loc 2 332 13 view .LVU725
.LBE688:
	.loc 2 329 20 is_stmt 0 discriminator 1 view .LVU726
	addl	$2, %r9d
	addl	$1, %r10d
.LVL227:
.LBB689:
	.loc 2 332 47 view .LVU727
	sarl	%cl, %eax
	.loc 2 331 29 view .LVU728
	movq	%rdx, %rcx
	.loc 2 331 17 view .LVU729
	imulq	$1321528399, %rdx, %rdx
	.loc 2 332 27 view .LVU730
	andl	$3, %eax
	.loc 2 332 24 view .LVU731
	shrq	$34, %r8
.LVL228:
	.loc 2 331 17 view .LVU732
	shrq	$35, %rdx
	imull	$26, %edx, %edx
	subl	%edx, %ecx
	.loc 2 332 64 view .LVU733
	sall	%cl, %eax
	.loc 2 332 24 view .LVU734
	orl	%eax, (%r11,%r8,4)
.LBE689:
	.loc 2 329 25 is_stmt 1 discriminator 3 view .LVU735
.LVL229:
	.loc 2 329 20 discriminator 1 view .LVU736
	cmpl	$8, %r9d
	jne	.L20
.LBE686:
	.loc 2 327 22 discriminator 2 view .LVU737
.LVL230:
	.loc 2 327 16 discriminator 1 view .LVU738
	addl	$4, %esi
	cmpl	$128, %esi
	je	.L21
.LBB692:
.LBB690:
	.loc 2 330 17 is_stmt 0 view .LVU739
	movl	%esi, %r8d
.LBE690:
.LBE692:
	.loc 2 327 16 discriminator 1 view .LVU740
	subq	$1, %rbx
.LVL231:
.LBB693:
.LBB691:
	.loc 2 330 17 view .LVU741
	imulq	$1321528399, %r8, %rax
	.loc 2 332 17 view .LVU742
	shrq	$34, %rax
	movl	(%r11,%rax,4), %r9d
	jmp	.L19
.LVL232:
.L21:
	.loc 2 332 17 view .LVU743
.LBE691:
.LBE693:
	.loc 2 335 5 is_stmt 1 view .LVU744
	.loc 2 343 12 is_stmt 0 view .LVU745
	movl	$1, %edx
	.loc 2 335 8 view .LVU746
	cmpl	$4194303, 36(%r11)
	je	.L26
.L18:
	.loc 2 344 1 view .LVU747
	movl	%edx, %eax
	popq	%rbx
.LCFI64:
	.cfi_remember_state
	.cfi_restore 3
	.cfi_def_cfa_offset 16
.LVL233:
	.loc 2 344 1 view .LVU748
	popq	%rsi
.LCFI65:
	.cfi_restore 4
	.cfi_def_cfa_offset 8
	ret
.LVL234:
.L26:
.LCFI66:
	.cfi_restore_state
	.loc 2 335 43 discriminator 1 view .LVU749
	movl	32(%r11), %eax
	andl	28(%r11), %eax
	.loc 2 335 53 discriminator 1 view .LVU750
	andl	24(%r11), %eax
	.loc 2 335 63 discriminator 1 view .LVU751
	andl	20(%r11), %eax
	.loc 2 335 73 discriminator 1 view .LVU752
	andl	16(%r11), %eax
	.loc 2 335 83 discriminator 1 view .LVU753
	andl	12(%r11), %eax
	.loc 2 335 93 discriminator 1 view .LVU754
	andl	8(%r11), %eax
	.loc 2 335 31 discriminator 1 view .LVU755
	cmpl	$67108863, %eax
	jne	.L18
	.loc 2 335 152 discriminator 2 view .LVU756
	movl	(%r11), %eax
	.loc 2 335 140 discriminator 2 view .LVU757
	movl	4(%r11), %edx
	.loc 2 335 152 discriminator 2 view .LVU758
	addl	$977, %eax
	.loc 2 335 163 discriminator 2 view .LVU759
	shrl	$26, %eax
	.loc 2 335 140 discriminator 2 view .LVU760
	leal	64(%rax,%rdx), %eax
	.loc 2 335 119 discriminator 2 view .LVU761
	xorl	%edx, %edx
	cmpl	$67108863, %eax
	setbe	%dl
	.loc 2 344 1 view .LVU762
	movl	%edx, %eax
	popq	%rbx
.LCFI67:
	.cfi_restore 3
	.cfi_def_cfa_offset 16
.LVL235:
	.loc 2 344 1 view .LVU763
	popq	%rsi
.LCFI68:
	.cfi_restore 4
	.cfi_def_cfa_offset 8
	ret
	.cfi_endproc
.LFE127:
	.seh_endproc
	.p2align 4
	.def	secp256k1_fe_get_b32;	.scl	3;	.type	32;	.endef
	.seh_proc	secp256k1_fe_get_b32
secp256k1_fe_get_b32:
.LVL236:
.LFB128:
	.loc 2 347 75 is_stmt 1 view -0
	.cfi_startproc
	.loc 2 347 75 is_stmt 0 view .LVU765
	pushq	%rsi
	.seh_pushreg	%rsi
.LCFI69:
	.cfi_def_cfa_offset 16
	.cfi_offset 4, -16
	pushq	%rbx
	.seh_pushreg	%rbx
.LCFI70:
	.cfi_def_cfa_offset 24
	.cfi_offset 3, -24
	.seh_endprologue
	.loc 2 348 5 is_stmt 1 view .LVU766
	.loc 2 353 5 view .LVU767
.LVL237:
	.loc 2 353 16 discriminator 1 view .LVU768
.LBB694:
	.loc 2 355 13 is_stmt 0 view .LVU769
	xorl	%r11d, %r11d
.LBE694:
	.loc 2 347 75 view .LVU770
	movq	%rdx, %r10
	leaq	31(%rcx), %rbx
.LVL238:
	.p2align 4
	.p2align 3
.L28:
.LBB698:
	.loc 2 356 20 is_stmt 1 discriminator 1 view .LVU771
.LBE698:
	.loc 2 347 75 is_stmt 0 view .LVU772
	movl	%r11d, %r8d
	xorl	%edx, %edx
.LBB699:
	.loc 2 355 13 view .LVU773
	xorl	%r9d, %r9d
.LVL239:
.L29:
.LBB695:
	.loc 2 357 13 is_stmt 1 view .LVU774
	.loc 2 358 13 view .LVU775
	.loc 2 359 13 view .LVU776
	.loc 2 358 29 is_stmt 0 view .LVU777
	leal	(%r8,%r8), %eax
	.loc 2 357 17 view .LVU778
	movl	%r8d, %esi
.LBE695:
	.loc 2 356 20 discriminator 1 view .LVU779
	addl	$1, %r8d
.LVL240:
.LBB696:
	.loc 2 358 29 view .LVU780
	movq	%rax, %rcx
	.loc 2 358 17 view .LVU781
	imulq	$1321528399, %rax, %rax
	.loc 2 357 17 view .LVU782
	imulq	$1321528399, %rsi, %rsi
	.loc 2 358 17 view .LVU783
	shrq	$35, %rax
	imull	$26, %eax, %eax
	.loc 2 359 24 view .LVU784
	shrq	$34, %rsi
	.loc 2 358 17 view .LVU785
	subl	%eax, %ecx
	.loc 2 359 31 view .LVU786
	movl	(%r10,%rsi,4), %eax
	shrl	%cl, %eax
	.loc 2 359 48 view .LVU787
	movl	%edx, %ecx
.LBE696:
	.loc 2 356 20 discriminator 1 view .LVU788
	addl	$2, %edx
.LBB697:
	.loc 2 359 41 view .LVU789
	andl	$3, %eax
	.loc 2 359 48 view .LVU790
	sall	%cl, %eax
	.loc 2 359 15 view .LVU791
	orl	%eax, %r9d
.LVL241:
	.loc 2 359 15 view .LVU792
.LBE697:
	.loc 2 356 25 is_stmt 1 discriminator 3 view .LVU793
	.loc 2 356 20 discriminator 1 view .LVU794
	cmpl	$8, %edx
	jne	.L29
	.loc 2 361 9 view .LVU795
.LBE699:
	.loc 2 353 16 is_stmt 0 discriminator 1 view .LVU796
	addl	$4, %r11d
.LBB700:
	.loc 2 361 17 view .LVU797
	movb	%r9b, (%rbx)
.LBE700:
	.loc 2 353 22 is_stmt 1 discriminator 2 view .LVU798
.LVL242:
	.loc 2 353 16 discriminator 1 view .LVU799
	subq	$1, %rbx
.LVL243:
	.loc 2 353 16 is_stmt 0 discriminator 1 view .LVU800
	cmpl	$128, %r11d
	jne	.L28
	.loc 2 363 1 view .LVU801
	popq	%rbx
.LCFI71:
	.cfi_restore 3
	.cfi_def_cfa_offset 16
	popq	%rsi
.LCFI72:
	.cfi_restore 4
	.cfi_def_cfa_offset 8
	ret
	.cfi_endproc
.LFE128:
	.seh_endproc
	.p2align 4
	.def	secp256k1_fe_mul_inner;	.scl	3;	.type	32;	.endef
	.seh_proc	secp256k1_fe_mul_inner
secp256k1_fe_mul_inner:
.LVL244:
.LFB132:
	.loc 2 440 124 is_stmt 1 view -0
	.cfi_startproc
	.loc 2 440 124 is_stmt 0 view .LVU803
	pushq	%r15
	.seh_pushreg	%r15
.LCFI73:
	.cfi_def_cfa_offset 16
	.cfi_offset 15, -16
	pushq	%r14
	.seh_pushreg	%r14
.LCFI74:
	.cfi_def_cfa_offset 24
	.cfi_offset 14, -24
	pushq	%r13
	.seh_pushreg	%r13
.LCFI75:
	.cfi_def_cfa_offset 32
	.cfi_offset 13, -32
	pushq	%r12
	.seh_pushreg	%r12
.LCFI76:
	.cfi_def_cfa_offset 40
	.cfi_offset 12, -40
	pushq	%rbp
	.seh_pushreg	%rbp
.LCFI77:
	.cfi_def_cfa_offset 48
	.cfi_offset 6, -48
	pushq	%rdi
	.seh_pushreg	%rdi
.LCFI78:
	.cfi_def_cfa_offset 56
	.cfi_offset 5, -56
	pushq	%rsi
	.seh_pushreg	%rsi
.LCFI79:
	.cfi_def_cfa_offset 64
	.cfi_offset 4, -64
	pushq	%rbx
	.seh_pushreg	%rbx
.LCFI80:
	.cfi_def_cfa_offset 72
	.cfi_offset 3, -72
	subq	$184, %rsp
	.seh_stackalloc	184
.LCFI81:
	.cfi_def_cfa_offset 256
	.seh_endprologue
	.loc 2 441 5 is_stmt 1 view .LVU804
	.loc 2 442 5 view .LVU805
	.loc 2 443 5 view .LVU806
	.loc 2 444 5 view .LVU807
.LVL245:
	.loc 2 446 5 view .LVU808
	.loc 2 446 5 view .LVU809
	.loc 2 446 5 view .LVU810
	.loc 2 447 5 view .LVU811
	.loc 2 447 5 view .LVU812
	.loc 2 447 5 view .LVU813
	.loc 2 448 5 view .LVU814
	.loc 2 448 5 view .LVU815
	.loc 2 448 5 view .LVU816
	.loc 2 449 5 view .LVU817
	.loc 2 449 5 view .LVU818
	.loc 2 449 5 view .LVU819
	.loc 2 450 5 view .LVU820
	.loc 2 450 5 view .LVU821
	.loc 2 450 5 view .LVU822
	.loc 2 451 5 view .LVU823
	.loc 2 451 5 view .LVU824
	.loc 2 451 5 view .LVU825
	.loc 2 452 5 view .LVU826
	.loc 2 452 5 view .LVU827
	.loc 2 452 5 view .LVU828
	.loc 2 453 5 view .LVU829
	.loc 2 453 5 view .LVU830
	.loc 2 453 5 view .LVU831
	.loc 2 454 5 view .LVU832
	.loc 2 454 5 view .LVU833
	.loc 2 454 5 view .LVU834
	.loc 2 455 5 view .LVU835
	.loc 2 455 5 view .LVU836
	.loc 2 455 5 view .LVU837
	.loc 2 456 5 view .LVU838
	.loc 2 456 5 view .LVU839
	.loc 2 456 5 view .LVU840
	.loc 2 457 5 view .LVU841
	.loc 2 457 5 view .LVU842
	.loc 2 457 5 view .LVU843
	.loc 2 458 5 view .LVU844
	.loc 2 458 5 view .LVU845
	.loc 2 458 5 view .LVU846
	.loc 2 459 5 view .LVU847
	.loc 2 459 5 view .LVU848
	.loc 2 459 5 view .LVU849
	.loc 2 460 5 view .LVU850
	.loc 2 460 5 view .LVU851
	.loc 2 460 5 view .LVU852
	.loc 2 461 5 view .LVU853
	.loc 2 461 5 view .LVU854
	.loc 2 461 5 view .LVU855
	.loc 2 462 5 view .LVU856
	.loc 2 462 5 view .LVU857
	.loc 2 462 5 view .LVU858
	.loc 2 463 5 view .LVU859
	.loc 2 463 5 view .LVU860
	.loc 2 463 5 view .LVU861
	.loc 2 464 5 view .LVU862
	.loc 2 464 5 view .LVU863
	.loc 2 464 5 view .LVU864
	.loc 2 465 5 view .LVU865
	.loc 2 465 5 view .LVU866
	.loc 2 465 5 view .LVU867
	.loc 2 472 5 view .LVU868
	.loc 2 477 28 is_stmt 0 view .LVU869
	movl	16(%r8), %edi
	.loc 2 473 28 view .LVU870
	movl	32(%r8), %esi
	.loc 2 476 28 view .LVU871
	movl	20(%r8), %r11d
	.loc 2 472 28 view .LVU872
	movl	36(%r8), %eax
	.loc 2 479 28 view .LVU873
	movl	8(%r8), %r10d
	.loc 2 475 28 view .LVU874
	movl	24(%r8), %r14d
	.loc 2 440 124 view .LVU875
	movq	%rcx, 256(%rsp)
	movq	%rdx, %rcx
.LVL246:
	.loc 2 472 10 view .LVU876
	movl	(%rdx), %edx
.LVL247:
	.loc 2 478 10 view .LVU877
	movl	24(%rcx), %r15d
	.loc 2 475 10 view .LVU878
	movl	12(%rcx), %ebx
	.loc 2 477 28 view .LVU879
	movq	%rdi, 40(%rsp)
	.loc 2 479 10 view .LVU880
	movl	28(%rcx), %edi
	.loc 2 473 10 view .LVU881
	movl	4(%rcx), %r9d
	.loc 2 474 10 view .LVU882
	movl	8(%rcx), %r13d
	.loc 2 476 10 view .LVU883
	movl	16(%rcx), %r12d
	.loc 2 478 10 view .LVU884
	movq	%r15, 64(%rsp)
	.loc 2 478 28 view .LVU885
	movl	12(%r8), %r15d
	.loc 2 477 10 view .LVU886
	movl	20(%rcx), %ebp
	.loc 2 475 10 view .LVU887
	movq	%rbx, 24(%rsp)
	.loc 2 474 28 view .LVU888
	movl	28(%r8), %ebx
	.loc 2 479 10 view .LVU889
	movq	%rdi, 56(%rsp)
	.loc 2 478 28 view .LVU890
	movq	%r15, 16(%rsp)
	.loc 2 481 28 view .LVU891
	movl	(%r8), %r15d
	.loc 2 480 28 view .LVU892
	movl	4(%r8), %r8d
.LVL248:
	.loc 2 481 10 view .LVU893
	movl	36(%rcx), %edi
	.loc 2 473 10 view .LVU894
	movq	%r9, 72(%rsp)
	.loc 2 480 10 view .LVU895
	movl	32(%rcx), %ecx
.LVL249:
	.loc 2 481 28 view .LVU896
	movq	%r15, (%rsp)
	.loc 2 480 28 view .LVU897
	movq	%r8, %r15
	.loc 2 473 25 view .LVU898
	movq	72(%rsp), %r8
	.loc 2 480 10 view .LVU899
	movq	%rcx, %r9
	.loc 2 472 25 view .LVU900
	movq	%rdx, %rcx
	.loc 2 473 25 view .LVU901
	imulq	%rsi, %r8
	.loc 2 472 25 view .LVU902
	imulq	%rax, %rcx
	.loc 2 472 8 view .LVU903
	addq	%r8, %rcx
	.loc 2 474 25 view .LVU904
	movq	%r13, %r8
	.loc 2 472 8 view .LVU905
	movq	%rcx, 8(%rsp)
	.loc 2 474 25 view .LVU906
	imulq	%rbx, %r8
	.loc 2 475 25 view .LVU907
	movq	24(%rsp), %rcx
	imulq	%r14, %rcx
	.loc 2 472 8 view .LVU908
	addq	8(%rsp), %rcx
	.loc 2 477 25 view .LVU909
	movq	%rbp, 32(%rsp)
	.loc 2 472 8 view .LVU910
	addq	%rcx, %r8
	.loc 2 477 25 view .LVU911
	movq	%rbp, %rcx
	movq	40(%rsp), %rbp
	.loc 2 476 25 view .LVU912
	movq	%r12, 48(%rsp)
	.loc 2 480 25 view .LVU913
	movq	%r9, 8(%rsp)
	.loc 2 477 25 view .LVU914
	imulq	%rbp, %rcx
	.loc 2 493 25 view .LVU915
	movq	%r13, 80(%rsp)
	.loc 2 472 8 view .LVU916
	addq	%r8, %rcx
	.loc 2 476 25 view .LVU917
	movq	%r12, %r8
	.loc 2 481 25 view .LVU918
	movq	(%rsp), %r12
	.loc 2 476 25 view .LVU919
	imulq	%r11, %r8
	.loc 2 472 8 view .LVU920
	addq	%rcx, %r8
	.loc 2 479 25 view .LVU921
	movq	56(%rsp), %rcx
	imulq	%r10, %rcx
	.loc 2 472 8 view .LVU922
	addq	%r8, %rcx
	.loc 2 478 25 view .LVU923
	movq	64(%rsp), %r8
	imulq	16(%rsp), %r8
	.loc 2 472 8 view .LVU924
	addq	%rcx, %r8
	.loc 2 481 25 view .LVU925
	movq	%r12, %rcx
	imulq	%rdi, %rcx
	.loc 2 489 8 view .LVU926
	imulq	%rdx, %r12
	.loc 2 472 8 view .LVU927
	addq	%r8, %rcx
	.loc 2 480 25 view .LVU928
	movq	%r15, %r8
	imulq	%r9, %r8
	.loc 2 492 25 view .LVU929
	movq	72(%rsp), %r9
	.loc 2 472 8 view .LVU930
	leaq	(%rcx,%r8), %rbp
.LVL250:
	.loc 2 484 5 is_stmt 1 view .LVU931
	.loc 2 484 17 view .LVU932
	.loc 2 492 25 is_stmt 0 view .LVU933
	movq	%rax, %rcx
	.loc 2 493 25 view .LVU934
	movq	%r13, %r8
	.loc 2 494 25 view .LVU935
	movq	24(%rsp), %r13
	.loc 2 492 25 view .LVU936
	imulq	%r9, %rcx
	.loc 2 484 19 view .LVU937
	movq	%rbp, 112(%rsp)
	shrq	$26, %rbp
.LVL251:
	.loc 2 485 5 is_stmt 1 view .LVU938
	.loc 2 485 5 view .LVU939
	.loc 2 485 5 view .LVU940
	.loc 2 486 5 view .LVU941
	.loc 2 486 5 view .LVU942
	.loc 2 486 5 view .LVU943
	.loc 2 489 5 view .LVU944
	.loc 2 490 5 view .LVU945
	.loc 2 490 5 view .LVU946
	.loc 2 490 5 view .LVU947
	.loc 2 492 5 view .LVU948
	.loc 2 493 25 is_stmt 0 view .LVU949
	imulq	%rsi, %r8
	.loc 2 494 25 view .LVU950
	imulq	%rbx, %r13
	.loc 2 499 8 view .LVU951
	addq	%rcx, %r8
	.loc 2 495 25 view .LVU952
	movq	48(%rsp), %rcx
	imulq	%r14, %rcx
	.loc 2 499 8 view .LVU953
	addq	%r8, %rcx
	leaq	0(%r13,%rcx), %r8
	.loc 2 497 25 view .LVU954
	movq	64(%rsp), %rcx
	.loc 2 498 25 view .LVU955
	movq	56(%rsp), %r13
	.loc 2 497 25 view .LVU956
	imulq	40(%rsp), %rcx
	.loc 2 499 8 view .LVU957
	addq	%r8, %rcx
	.loc 2 496 25 view .LVU958
	movq	32(%rsp), %r8
	imulq	%r11, %r8
	.loc 2 499 8 view .LVU959
	addq	%rcx, %r8
	.loc 2 499 25 view .LVU960
	movq	8(%rsp), %rcx
	imulq	%r10, %rcx
	.loc 2 499 8 view .LVU961
	addq	%r8, %rcx
	.loc 2 498 25 view .LVU962
	imulq	16(%rsp), %r13
	.loc 2 499 8 view .LVU963
	leaq	0(%r13,%rcx), %r8
	.loc 2 500 25 view .LVU964
	movq	%r15, %rcx
	.loc 2 514 25 view .LVU965
	movq	%r15, %r13
	.loc 2 500 25 view .LVU966
	imulq	%rdi, %rcx
	.loc 2 514 25 view .LVU967
	imulq	%rdx, %r13
	.loc 2 500 8 view .LVU968
	addq	%r8, %rcx
	.loc 2 492 7 view .LVU969
	addq	%rbp, %rcx
.LVL252:
	.loc 2 501 5 is_stmt 1 view .LVU970
	.loc 2 501 5 view .LVU971
	.loc 2 501 5 view .LVU972
	.loc 2 503 5 view .LVU973
	.loc 2 503 8 is_stmt 0 view .LVU974
	movq	%rcx, %rbp
	.loc 2 503 19 view .LVU975
	shrq	$26, %rcx
.LVL253:
	.loc 2 503 8 view .LVU976
	andl	$67108863, %ebp
.LVL254:
	.loc 2 503 17 is_stmt 1 view .LVU977
	.loc 2 503 27 view .LVU978
	.loc 2 503 35 is_stmt 0 view .LVU979
	imulq	$15632, %rbp, %r8
	.loc 2 508 35 view .LVU980
	salq	$10, %rbp
.LVL255:
	.loc 2 503 29 view .LVU981
	addq	%r8, %r12
.LVL256:
	.loc 2 504 5 is_stmt 1 view .LVU982
	.loc 2 504 5 view .LVU983
	.loc 2 504 5 view .LVU984
	.loc 2 505 5 view .LVU985
	.loc 2 505 5 view .LVU986
	.loc 2 505 5 view .LVU987
	.loc 2 506 5 view .LVU988
	.loc 2 506 5 view .LVU989
	.loc 2 506 5 view .LVU990
	.loc 2 508 5 view .LVU991
	.loc 2 508 17 view .LVU992
	.loc 2 515 25 is_stmt 0 view .LVU993
	movq	(%rsp), %r8
	.loc 2 508 19 view .LVU994
	movq	%r12, 120(%rsp)
	shrq	$26, %r12
.LVL257:
	.loc 2 508 27 is_stmt 1 view .LVU995
	.loc 2 509 5 view .LVU996
	.loc 2 509 5 view .LVU997
	.loc 2 509 5 view .LVU998
	.loc 2 510 5 view .LVU999
	.loc 2 510 5 view .LVU1000
	.loc 2 510 5 view .LVU1001
	.loc 2 514 5 view .LVU1002
	.loc 2 515 25 is_stmt 0 view .LVU1003
	imulq	%r9, %r8
	.loc 2 524 25 view .LVU1004
	movq	8(%rsp), %r9
.LVL258:
	.loc 2 514 7 view .LVU1005
	addq	%r13, %r8
	.loc 2 519 25 view .LVU1006
	movq	24(%rsp), %r13
	.loc 2 514 7 view .LVU1007
	addq	%rbp, %r8
	.loc 2 518 25 view .LVU1008
	movq	80(%rsp), %rbp
	.loc 2 519 25 view .LVU1009
	imulq	%rsi, %r13
	.loc 2 514 7 view .LVU1010
	addq	%r8, %r12
.LVL259:
	.loc 2 516 5 is_stmt 1 view .LVU1011
	.loc 2 516 5 view .LVU1012
	.loc 2 516 5 view .LVU1013
	.loc 2 518 5 view .LVU1014
	.loc 2 518 25 is_stmt 0 view .LVU1015
	imulq	%rax, %rbp
	.loc 2 525 8 view .LVU1016
	leaq	0(%r13,%rbp), %r8
	.loc 2 521 25 view .LVU1017
	movq	32(%rsp), %rbp
	movq	%r14, %r13
	imulq	%r14, %rbp
	.loc 2 522 25 view .LVU1018
	movq	64(%rsp), %r14
.LVL260:
	.loc 2 522 25 view .LVU1019
	imulq	%r11, %r14
	.loc 2 525 8 view .LVU1020
	addq	%r8, %rbp
	.loc 2 520 25 view .LVU1021
	movq	48(%rsp), %r8
	imulq	%rbx, %r8
	.loc 2 525 8 view .LVU1022
	addq	%rbp, %r8
	.loc 2 523 25 view .LVU1023
	movq	56(%rsp), %rbp
	imulq	40(%rsp), %rbp
	.loc 2 525 8 view .LVU1024
	addq	%r8, %rbp
	leaq	(%r14,%rbp), %r8
	.loc 2 525 25 view .LVU1025
	movq	%r10, %rbp
	imulq	%rdi, %rbp
	.loc 2 525 8 view .LVU1026
	addq	%r8, %rbp
	.loc 2 524 25 view .LVU1027
	movq	16(%rsp), %r8
	imulq	%r9, %r8
	.loc 2 525 8 view .LVU1028
	addq	%r8, %rbp
	.loc 2 518 7 view .LVU1029
	addq	%rcx, %rbp
.LVL261:
	.loc 2 526 5 is_stmt 1 view .LVU1030
	.loc 2 526 5 view .LVU1031
	.loc 2 526 5 view .LVU1032
	.loc 2 528 5 view .LVU1033
	.loc 2 528 8 is_stmt 0 view .LVU1034
	movq	%rbp, %rcx
	.loc 2 528 19 view .LVU1035
	shrq	$26, %rbp
.LVL262:
	.loc 2 528 8 view .LVU1036
	andl	$67108863, %ecx
.LVL263:
	.loc 2 528 8 view .LVU1037
	movq	%rcx, %r8
.LVL264:
	.loc 2 528 17 is_stmt 1 view .LVU1038
	.loc 2 528 27 view .LVU1039
	.loc 2 528 35 is_stmt 0 view .LVU1040
	imulq	$15632, %rcx, %rcx
.LVL265:
	.loc 2 528 29 view .LVU1041
	addq	%r12, %rcx
.LVL266:
	.loc 2 529 5 is_stmt 1 view .LVU1042
	.loc 2 529 5 view .LVU1043
	.loc 2 529 5 view .LVU1044
	.loc 2 530 5 view .LVU1045
	.loc 2 530 5 view .LVU1046
	.loc 2 530 5 view .LVU1047
	.loc 2 531 5 view .LVU1048
	.loc 2 531 5 view .LVU1049
	.loc 2 531 5 view .LVU1050
	.loc 2 533 5 view .LVU1051
	.loc 2 533 17 view .LVU1052
	.loc 2 533 35 is_stmt 0 view .LVU1053
	salq	$10, %r8
.LVL267:
	.loc 2 533 19 view .LVU1054
	movq	%rcx, 128(%rsp)
	shrq	$26, %rcx
.LVL268:
	.loc 2 533 19 view .LVU1055
	movq	%rcx, %r14
.LVL269:
	.loc 2 533 27 is_stmt 1 view .LVU1056
	.loc 2 534 5 view .LVU1057
	.loc 2 534 5 view .LVU1058
	.loc 2 534 5 view .LVU1059
	.loc 2 535 5 view .LVU1060
	.loc 2 535 5 view .LVU1061
	.loc 2 535 5 view .LVU1062
	.loc 2 539 5 view .LVU1063
	.loc 2 542 5 view .LVU1064
	.loc 2 542 5 view .LVU1065
	.loc 2 542 5 view .LVU1066
	.loc 2 544 5 view .LVU1067
	.loc 2 544 25 is_stmt 0 view .LVU1068
	movq	24(%rsp), %rcx
	.loc 2 544 25 view .LVU1069
	imulq	%rax, %rcx
	movq	%rcx, %r12
	.loc 2 545 25 view .LVU1070
	movq	48(%rsp), %rcx
	.loc 2 547 25 view .LVU1071
	movq	%r13, 96(%rsp)
	.loc 2 540 25 view .LVU1072
	movq	%r15, 88(%rsp)
	.loc 2 545 25 view .LVU1073
	imulq	%rsi, %rcx
	.loc 2 549 8 view .LVU1074
	addq	%r12, %rcx
	.loc 2 547 25 view .LVU1075
	movq	64(%rsp), %r12
	imulq	%r13, %r12
	.loc 2 549 8 view .LVU1076
	addq	%rcx, %r12
	.loc 2 546 25 view .LVU1077
	movq	32(%rsp), %rcx
	imulq	%rbx, %rcx
	.loc 2 549 8 view .LVU1078
	addq	%r12, %rcx
	.loc 2 549 25 view .LVU1079
	movq	40(%rsp), %r12
	imulq	%r9, %r12
	.loc 2 540 25 view .LVU1080
	movq	72(%rsp), %r9
	.loc 2 549 8 view .LVU1081
	addq	%rcx, %r12
	.loc 2 548 25 view .LVU1082
	movq	56(%rsp), %rcx
	imulq	%r11, %rcx
	.loc 2 549 8 view .LVU1083
	addq	%r12, %rcx
	.loc 2 550 25 view .LVU1084
	movq	16(%rsp), %r12
	imulq	%rdi, %r12
	.loc 2 550 8 view .LVU1085
	addq	%r12, %rcx
	.loc 2 539 25 view .LVU1086
	movq	%r10, %r12
	.loc 2 544 7 view .LVU1087
	addq	%rbp, %rcx
.LVL270:
	.loc 2 551 5 is_stmt 1 view .LVU1088
	.loc 2 551 5 view .LVU1089
	.loc 2 551 5 view .LVU1090
	.loc 2 553 5 view .LVU1091
	.loc 2 539 25 is_stmt 0 view .LVU1092
	imulq	%rdx, %r12
	.loc 2 553 8 view .LVU1093
	movq	%rcx, %r13
.LVL271:
	.loc 2 553 19 view .LVU1094
	shrq	$26, %rcx
.LVL272:
	.loc 2 553 8 view .LVU1095
	andl	$67108863, %r13d
.LVL273:
	.loc 2 553 8 view .LVU1096
	movq	%r13, %rbp
.LVL274:
	.loc 2 553 17 is_stmt 1 view .LVU1097
	.loc 2 553 27 view .LVU1098
	.loc 2 540 25 is_stmt 0 view .LVU1099
	movq	%r15, %r13
	.loc 2 541 25 view .LVU1100
	movq	(%rsp), %r15
.LVL275:
	.loc 2 540 25 view .LVU1101
	imulq	%r9, %r13
.LVL276:
	.loc 2 553 29 view .LVU1102
	addq	%r12, %r13
	.loc 2 541 25 view .LVU1103
	movq	80(%rsp), %r12
	.loc 2 541 25 view .LVU1104
	imulq	%r15, %r12
	.loc 2 553 29 view .LVU1105
	addq	%r13, %r12
	.loc 2 553 29 view .LVU1106
	addq	%r12, %r8
	.loc 2 553 35 view .LVU1107
	imulq	$15632, %rbp, %r12
	.loc 2 553 29 view .LVU1108
	addq	%r12, %r8
	addq	%r14, %r8
.LVL277:
	.loc 2 554 5 is_stmt 1 view .LVU1109
	.loc 2 554 5 view .LVU1110
	.loc 2 554 5 view .LVU1111
	.loc 2 555 5 view .LVU1112
	.loc 2 555 5 view .LVU1113
	.loc 2 555 5 view .LVU1114
	.loc 2 556 5 view .LVU1115
	.loc 2 556 5 view .LVU1116
	.loc 2 556 5 view .LVU1117
	.loc 2 558 5 view .LVU1118
	.loc 2 558 17 view .LVU1119
	.loc 2 571 25 is_stmt 0 view .LVU1120
	movq	32(%rsp), %r14
	.loc 2 558 19 view .LVU1121
	movq	%r8, 136(%rsp)
	movq	%r8, %r13
	.loc 2 570 25 view .LVU1122
	movq	48(%rsp), %r8
.LVL278:
	.loc 2 571 25 view .LVU1123
	imulq	%rsi, %r14
	.loc 2 558 19 view .LVU1124
	shrq	$26, %r13
.LVL279:
	.loc 2 558 27 is_stmt 1 view .LVU1125
	.loc 2 559 5 view .LVU1126
	.loc 2 559 5 view .LVU1127
	.loc 2 559 5 view .LVU1128
	.loc 2 560 5 view .LVU1129
	.loc 2 560 5 view .LVU1130
	.loc 2 560 5 view .LVU1131
	.loc 2 564 5 view .LVU1132
	.loc 2 568 5 view .LVU1133
	.loc 2 568 5 view .LVU1134
	.loc 2 568 5 view .LVU1135
	.loc 2 570 5 view .LVU1136
	.loc 2 570 25 is_stmt 0 view .LVU1137
	imulq	%rax, %r8
	.loc 2 575 8 view .LVU1138
	leaq	(%r14,%r8), %r12
	.loc 2 573 25 view .LVU1139
	movq	96(%rsp), %r8
	.loc 2 574 25 view .LVU1140
	movq	8(%rsp), %r14
	.loc 2 573 25 view .LVU1141
	imulq	56(%rsp), %r8
	.loc 2 575 8 view .LVU1142
	addq	%r12, %r8
	.loc 2 572 25 view .LVU1143
	movq	64(%rsp), %r12
	.loc 2 574 25 view .LVU1144
	imulq	%r11, %r14
	.loc 2 558 35 view .LVU1145
	salq	$10, %rbp
.LVL280:
	.loc 2 567 25 view .LVU1146
	imulq	24(%rsp), %r15
.LVL281:
	.loc 2 572 25 view .LVU1147
	imulq	%rbx, %r12
	.loc 2 575 8 view .LVU1148
	addq	%r8, %r12
	.loc 2 575 25 view .LVU1149
	movq	40(%rsp), %r8
	imulq	%rdi, %r8
	.loc 2 575 8 view .LVU1150
	addq	%r12, %r8
	addq	%r14, %r8
	.loc 2 570 7 view .LVU1151
	addq	%rcx, %r8
.LVL282:
	.loc 2 576 5 is_stmt 1 view .LVU1152
	.loc 2 576 5 view .LVU1153
	.loc 2 576 5 view .LVU1154
	.loc 2 578 5 view .LVU1155
	.loc 2 565 25 is_stmt 0 view .LVU1156
	movq	%r10, %rcx
	.loc 2 578 8 view .LVU1157
	movq	%r8, %r14
	.loc 2 565 25 view .LVU1158
	imulq	%r9, %rcx
.LVL283:
	.loc 2 578 19 view .LVU1159
	shrq	$26, %r8
.LVL284:
	.loc 2 578 8 view .LVU1160
	andl	$67108863, %r14d
.LVL285:
	.loc 2 578 8 view .LVU1161
	movq	%r14, %r12
.LVL286:
	.loc 2 578 17 is_stmt 1 view .LVU1162
	.loc 2 578 27 view .LVU1163
	.loc 2 564 25 is_stmt 0 view .LVU1164
	movq	16(%rsp), %r14
	imulq	%rdx, %r14
.LVL287:
	.loc 2 578 29 view .LVU1165
	addq	%r14, %rcx
.LVL288:
	.loc 2 578 29 view .LVU1166
	leaq	(%r15,%rcx), %r14
.LVL289:
	.loc 2 566 25 view .LVU1167
	movq	88(%rsp), %r15
.LVL290:
	.loc 2 566 25 view .LVU1168
	movq	80(%rsp), %rcx
	imulq	%r15, %rcx
	.loc 2 578 29 view .LVU1169
	addq	%r14, %rcx
	.loc 2 600 25 view .LVU1170
	movq	%r11, %r14
	.loc 2 578 29 view .LVU1171
	addq	%rcx, %rbp
.LVL291:
	.loc 2 578 35 view .LVU1172
	imulq	$15632, %r12, %rcx
	.loc 2 600 25 view .LVU1173
	imulq	%rdi, %r14
	.loc 2 578 29 view .LVU1174
	addq	%rcx, %rbp
	.loc 2 597 25 view .LVU1175
	movq	64(%rsp), %rcx
	.loc 2 578 29 view .LVU1176
	addq	%rbp, %r13
.LVL292:
	.loc 2 579 5 is_stmt 1 view .LVU1177
	.loc 2 579 5 view .LVU1178
	.loc 2 579 5 view .LVU1179
	.loc 2 580 5 view .LVU1180
	.loc 2 580 5 view .LVU1181
	.loc 2 580 5 view .LVU1182
	.loc 2 583 5 view .LVU1183
	.loc 2 583 17 view .LVU1184
	.loc 2 596 25 is_stmt 0 view .LVU1185
	movq	32(%rsp), %rbp
	.loc 2 597 25 view .LVU1186
	imulq	%rsi, %rcx
	.loc 2 583 19 view .LVU1187
	movq	%r13, 144(%rsp)
	shrq	$26, %r13
.LVL293:
	.loc 2 583 27 is_stmt 1 view .LVU1188
	.loc 2 584 5 view .LVU1189
	.loc 2 584 5 view .LVU1190
	.loc 2 584 5 view .LVU1191
	.loc 2 585 5 view .LVU1192
	.loc 2 585 5 view .LVU1193
	.loc 2 585 5 view .LVU1194
	.loc 2 589 5 view .LVU1195
	.loc 2 594 5 view .LVU1196
	.loc 2 594 5 view .LVU1197
	.loc 2 594 5 view .LVU1198
	.loc 2 596 5 view .LVU1199
	.loc 2 596 25 is_stmt 0 view .LVU1200
	imulq	%rax, %rbp
	.loc 2 599 8 view .LVU1201
	addq	%rbp, %rcx
	.loc 2 599 25 view .LVU1202
	movq	96(%rsp), %rbp
	imulq	8(%rsp), %rbp
	.loc 2 599 8 view .LVU1203
	addq	%rcx, %rbp
	.loc 2 598 25 view .LVU1204
	movq	56(%rsp), %rcx
	imulq	%rbx, %rcx
	.loc 2 599 8 view .LVU1205
	addq	%rbp, %rcx
	.loc 2 600 8 view .LVU1206
	addq	%r14, %rcx
	.loc 2 596 7 view .LVU1207
	addq	%r8, %rcx
.LVL294:
	.loc 2 601 5 is_stmt 1 view .LVU1208
	.loc 2 601 5 view .LVU1209
	.loc 2 601 5 view .LVU1210
	.loc 2 603 5 view .LVU1211
	.loc 2 603 8 is_stmt 0 view .LVU1212
	movq	%rcx, %r14
	andl	$67108863, %r14d
	.loc 2 583 35 view .LVU1213
	salq	$10, %r12
.LVL295:
	.loc 2 603 8 view .LVU1214
	movq	%r14, %rbp
.LVL296:
	.loc 2 603 17 is_stmt 1 view .LVU1215
	.loc 2 589 25 is_stmt 0 view .LVU1216
	movq	40(%rsp), %r14
	.loc 2 603 19 view .LVU1217
	shrq	$26, %rcx
.LVL297:
	.loc 2 603 27 is_stmt 1 view .LVU1218
	.loc 2 589 25 is_stmt 0 view .LVU1219
	imulq	%rdx, %r14
.LVL298:
	.loc 2 589 25 view .LVU1220
	movq	%r14, %r8
	.loc 2 590 25 view .LVU1221
	movq	16(%rsp), %r14
.LVL299:
	.loc 2 590 25 view .LVU1222
	imulq	%r9, %r14
.LVL300:
	.loc 2 603 29 view .LVU1223
	addq	%r8, %r14
.LVL301:
	.loc 2 592 25 view .LVU1224
	movq	24(%rsp), %r8
.LVL302:
	.loc 2 592 25 view .LVU1225
	imulq	%r15, %r8
.LVL303:
	.loc 2 603 29 view .LVU1226
	addq	%r14, %r8
.LVL304:
	.loc 2 591 25 view .LVU1227
	movq	80(%rsp), %r14
	imulq	%r10, %r14
	.loc 2 603 29 view .LVU1228
	addq	%r8, %r14
	.loc 2 593 25 view .LVU1229
	movq	48(%rsp), %r8
	movq	(%rsp), %r15
	.loc 2 617 25 view .LVU1230
	movq	%r10, 104(%rsp)
	imulq	24(%rsp), %r10
.LVL305:
	.loc 2 593 25 view .LVU1231
	imulq	%r15, %r8
.LVL306:
	.loc 2 603 29 view .LVU1232
	addq	%r14, %r8
.LVL307:
	.loc 2 614 25 view .LVU1233
	movq	%rdx, %r14
	.loc 2 603 29 view .LVU1234
	addq	%r8, %r12
.LVL308:
	.loc 2 603 35 view .LVU1235
	imulq	$15632, %rbp, %r8
	.loc 2 614 25 view .LVU1236
	imulq	%r11, %r14
	.loc 2 603 29 view .LVU1237
	addq	%r8, %r12
	addq	%r12, %r13
.LVL309:
	.loc 2 604 5 is_stmt 1 view .LVU1238
	.loc 2 604 5 view .LVU1239
	.loc 2 604 5 view .LVU1240
	.loc 2 605 5 view .LVU1241
	.loc 2 605 5 view .LVU1242
	.loc 2 605 5 view .LVU1243
	.loc 2 608 5 view .LVU1244
	.loc 2 608 17 view .LVU1245
	.loc 2 622 25 is_stmt 0 view .LVU1246
	movq	64(%rsp), %r12
	.loc 2 608 19 view .LVU1247
	movq	%r13, 152(%rsp)
	shrq	$26, %r13
.LVL310:
	.loc 2 608 27 is_stmt 1 view .LVU1248
	.loc 2 609 5 view .LVU1249
	.loc 2 609 5 view .LVU1250
	.loc 2 609 5 view .LVU1251
	.loc 2 610 5 view .LVU1252
	.loc 2 610 5 view .LVU1253
	.loc 2 610 5 view .LVU1254
	.loc 2 614 5 view .LVU1255
	.loc 2 620 5 view .LVU1256
	.loc 2 620 5 view .LVU1257
	.loc 2 620 5 view .LVU1258
	.loc 2 622 5 view .LVU1259
	.loc 2 622 25 is_stmt 0 view .LVU1260
	imulq	%rax, %r12
	movq	%r12, %r8
	.loc 2 623 25 view .LVU1261
	movq	56(%rsp), %r12
	imulq	%rsi, %r12
	.loc 2 625 8 view .LVU1262
	addq	%r8, %r12
	.loc 2 625 25 view .LVU1263
	movq	96(%rsp), %r8
	imulq	%rdi, %r8
	.loc 2 625 8 view .LVU1264
	addq	%r12, %r8
	.loc 2 624 25 view .LVU1265
	movq	8(%rsp), %r12
	imulq	%rbx, %r12
	.loc 2 625 8 view .LVU1266
	addq	%r12, %r8
	.loc 2 615 25 view .LVU1267
	movq	40(%rsp), %r12
	.loc 2 622 7 view .LVU1268
	addq	%rcx, %r8
.LVL311:
	.loc 2 626 5 is_stmt 1 view .LVU1269
	.loc 2 626 5 view .LVU1270
	.loc 2 626 5 view .LVU1271
	.loc 2 628 5 view .LVU1272
	.loc 2 615 25 is_stmt 0 view .LVU1273
	imulq	%r9, %r12
	.loc 2 628 8 view .LVU1274
	movq	%r8, %rcx
	.loc 2 628 19 view .LVU1275
	shrq	$26, %r8
.LVL312:
	.loc 2 628 8 view .LVU1276
	andl	$67108863, %ecx
.LVL313:
	.loc 2 628 17 is_stmt 1 view .LVU1277
	.loc 2 628 27 view .LVU1278
	.loc 2 628 29 is_stmt 0 view .LVU1279
	addq	%r14, %r12
	.loc 2 628 29 view .LVU1280
	leaq	(%r10,%r12), %r14
	.loc 2 616 25 view .LVU1281
	movq	16(%rsp), %r10
	movq	80(%rsp), %r12
	imulq	%r10, %r12
	.loc 2 628 29 view .LVU1282
	addq	%r14, %r12
	.loc 2 619 25 view .LVU1283
	movq	32(%rsp), %r14
	.loc 2 608 35 view .LVU1284
	salq	$10, %rbp
.LVL314:
	.loc 2 619 25 view .LVU1285
	imulq	%r15, %r14
	.loc 2 618 25 view .LVU1286
	movq	88(%rsp), %r15
	.loc 2 628 29 view .LVU1287
	addq	%r12, %r14
	.loc 2 618 25 view .LVU1288
	movq	48(%rsp), %r12
	imulq	%r15, %r12
	.loc 2 628 29 view .LVU1289
	addq	%r14, %r12
	addq	%r12, %rbp
	.loc 2 628 35 view .LVU1290
	imulq	$15632, %rcx, %r12
	.loc 2 633 35 view .LVU1291
	salq	$10, %rcx
.LVL315:
	.loc 2 628 29 view .LVU1292
	addq	%r12, %rbp
	.loc 2 649 25 view .LVU1293
	movq	8(%rsp), %r12
	.loc 2 628 29 view .LVU1294
	leaq	0(%rbp,%r13), %r14
.LVL316:
	.loc 2 629 5 is_stmt 1 view .LVU1295
	.loc 2 629 5 view .LVU1296
	.loc 2 629 5 view .LVU1297
	.loc 2 630 5 view .LVU1298
	.loc 2 630 5 view .LVU1299
	.loc 2 630 5 view .LVU1300
	.loc 2 633 5 view .LVU1301
	.loc 2 633 17 view .LVU1302
	.loc 2 648 25 is_stmt 0 view .LVU1303
	movq	56(%rsp), %rbp
	.loc 2 649 25 view .LVU1304
	imulq	%rsi, %r12
	.loc 2 633 19 view .LVU1305
	movq	%r14, 160(%rsp)
	shrq	$26, %r14
.LVL317:
	.loc 2 648 25 view .LVU1306
	imulq	%rax, %rbp
	.loc 2 633 19 view .LVU1307
	movq	%r14, %r13
.LVL318:
	.loc 2 633 27 is_stmt 1 view .LVU1308
	.loc 2 634 5 view .LVU1309
	.loc 2 634 5 view .LVU1310
	.loc 2 634 5 view .LVU1311
	.loc 2 635 5 view .LVU1312
	.loc 2 635 5 view .LVU1313
	.loc 2 635 5 view .LVU1314
	.loc 2 639 5 view .LVU1315
	.loc 2 646 5 view .LVU1316
	.loc 2 646 5 view .LVU1317
	.loc 2 646 5 view .LVU1318
	.loc 2 648 5 view .LVU1319
	.loc 2 640 25 is_stmt 0 view .LVU1320
	movq	72(%rsp), %r14
	imulq	%r11, %r14
	.loc 2 649 8 view .LVU1321
	addq	%rbp, %r12
	.loc 2 650 25 view .LVU1322
	movq	%rbx, %rbp
	imulq	%rdi, %rbp
	.loc 2 650 8 view .LVU1323
	addq	%rbp, %r12
	.loc 2 639 25 view .LVU1324
	movq	96(%rsp), %rbp
	.loc 2 648 7 view .LVU1325
	addq	%r8, %r12
.LVL319:
	.loc 2 651 5 is_stmt 1 view .LVU1326
	.loc 2 651 5 view .LVU1327
	.loc 2 651 5 view .LVU1328
	.loc 2 653 5 view .LVU1329
	.loc 2 639 25 is_stmt 0 view .LVU1330
	imulq	%rdx, %rbp
	.loc 2 653 8 view .LVU1331
	movq	%r12, %r8
	.loc 2 653 19 view .LVU1332
	shrq	$26, %r12
.LVL320:
	.loc 2 653 8 view .LVU1333
	andl	$67108863, %r8d
.LVL321:
	.loc 2 653 17 is_stmt 1 view .LVU1334
	.loc 2 653 27 view .LVU1335
	.loc 2 653 29 is_stmt 0 view .LVU1336
	addq	%rbp, %r14
	.loc 2 642 25 view .LVU1337
	movq	24(%rsp), %rbp
	.loc 2 642 25 view .LVU1338
	imulq	%r10, %rbp
	.loc 2 667 25 view .LVU1339
	movq	40(%rsp), %r10
	.loc 2 653 29 view .LVU1340
	addq	%r14, %rbp
	.loc 2 641 25 view .LVU1341
	movq	80(%rsp), %r14
	imulq	40(%rsp), %r14
	.loc 2 653 29 view .LVU1342
	addq	%rbp, %r14
	.loc 2 644 25 view .LVU1343
	movq	32(%rsp), %rbp
	imulq	%r15, %rbp
	.loc 2 653 29 view .LVU1344
	addq	%r14, %rbp
	.loc 2 643 25 view .LVU1345
	movq	48(%rsp), %r14
	imulq	104(%rsp), %r14
	.loc 2 653 29 view .LVU1346
	addq	%rbp, %r14
	.loc 2 645 25 view .LVU1347
	movq	64(%rsp), %rbp
	imulq	(%rsp), %rbp
	.loc 2 653 29 view .LVU1348
	addq	%r14, %rbp
	.loc 2 675 25 view .LVU1349
	movq	8(%rsp), %r14
	.loc 2 653 29 view .LVU1350
	addq	%rbp, %rcx
	.loc 2 653 35 view .LVU1351
	imulq	$15632, %r8, %rbp
	.loc 2 658 35 view .LVU1352
	salq	$10, %r8
.LVL322:
	.loc 2 653 29 view .LVU1353
	addq	%rbp, %rcx
	addq	%r13, %rcx
.LVL323:
	.loc 2 654 5 is_stmt 1 view .LVU1354
	.loc 2 654 5 view .LVU1355
	.loc 2 654 5 view .LVU1356
	.loc 2 655 5 view .LVU1357
	.loc 2 655 5 view .LVU1358
	.loc 2 655 5 view .LVU1359
	.loc 2 658 5 view .LVU1360
	.loc 2 658 17 view .LVU1361
	.loc 2 658 27 view .LVU1362
	.loc 2 659 5 view .LVU1363
	.loc 2 659 5 view .LVU1364
	.loc 2 659 5 view .LVU1365
	.loc 2 660 5 view .LVU1366
	.loc 2 660 5 view .LVU1367
	.loc 2 660 5 view .LVU1368
	.loc 2 664 5 view .LVU1369
	.loc 2 673 5 view .LVU1370
	.loc 2 673 5 view .LVU1371
	.loc 2 675 5 view .LVU1372
	.loc 2 676 25 is_stmt 0 view .LVU1373
	movq	%rsi, %r13
	.loc 2 658 19 view .LVU1374
	movq	%rcx, %r15
	.loc 2 676 25 view .LVU1375
	imulq	%rdi, %r13
	.loc 2 658 19 view .LVU1376
	shrq	$26, %r15
	movq	%r15, 168(%rsp)
	.loc 2 675 25 view .LVU1377
	movq	%rax, %r15
	.loc 2 703 25 view .LVU1378
	imulq	%rdi, %rax
.LVL324:
	.loc 2 675 25 view .LVU1379
	imulq	%r14, %r15
.LVL325:
	.loc 2 675 25 view .LVU1380
	movq	%r15, %rbp
	.loc 2 664 25 view .LVU1381
	movq	%rdx, %r15
	imulq	%rbx, %r15
	.loc 2 676 8 view .LVU1382
	addq	%r13, %rbp
	.loc 2 665 25 view .LVU1383
	movq	96(%rsp), %r13
	imulq	72(%rsp), %r13
	.loc 2 675 7 view .LVU1384
	addq	%r12, %rbp
.LVL326:
	.loc 2 677 5 is_stmt 1 view .LVU1385
	.loc 2 677 5 view .LVU1386
	.loc 2 677 5 view .LVU1387
	.loc 2 679 5 view .LVU1388
	.loc 2 667 25 is_stmt 0 view .LVU1389
	imulq	24(%rsp), %r10
	.loc 2 679 8 view .LVU1390
	movq	%rbp, %r12
	.loc 2 694 25 view .LVU1391
	movq	24(%rsp), %r9
	.loc 2 679 19 view .LVU1392
	shrq	$26, %rbp
.LVL327:
	.loc 2 679 8 view .LVU1393
	andl	$67108863, %r12d
.LVL328:
	.loc 2 679 17 is_stmt 1 view .LVU1394
	.loc 2 679 27 view .LVU1395
	.loc 2 679 29 is_stmt 0 view .LVU1396
	addq	%r15, %r13
	.loc 2 670 25 view .LVU1397
	movq	88(%rsp), %r15
	.loc 2 679 29 view .LVU1398
	leaq	(%r10,%r13), %r14
	.loc 2 666 25 view .LVU1399
	movq	80(%rsp), %r13
	.loc 2 692 25 view .LVU1400
	movq	72(%rsp), %r10
	.loc 2 666 25 view .LVU1401
	imulq	%r11, %r13
	.loc 2 679 29 view .LVU1402
	addq	%r14, %r13
	.loc 2 669 25 view .LVU1403
	movq	32(%rsp), %r14
	imulq	104(%rsp), %r14
	.loc 2 679 29 view .LVU1404
	addq	%r13, %r14
	.loc 2 668 25 view .LVU1405
	movq	48(%rsp), %r13
	imulq	16(%rsp), %r13
	.loc 2 679 29 view .LVU1406
	addq	%r14, %r13
	.loc 2 671 25 view .LVU1407
	movq	56(%rsp), %r14
	imulq	(%rsp), %r14
	.loc 2 679 29 view .LVU1408
	addq	%r13, %r14
	.loc 2 670 25 view .LVU1409
	movq	64(%rsp), %r13
	imulq	%r15, %r13
	.loc 2 679 29 view .LVU1410
	addq	%r14, %r13
	addq	%r13, %r8
	.loc 2 679 35 view .LVU1411
	imulq	$15632, %r12, %r13
	.loc 2 679 29 view .LVU1412
	addq	%r13, %r8
	addq	168(%rsp), %r8
.LVL329:
	.loc 2 680 5 is_stmt 1 view .LVU1413
	.loc 2 680 5 view .LVU1414
	.loc 2 680 5 view .LVU1415
	.loc 2 681 5 view .LVU1416
	.loc 2 681 5 view .LVU1417
	.loc 2 681 5 view .LVU1418
	.loc 2 683 5 view .LVU1419
	.loc 2 683 5 view .LVU1420
	.loc 2 685 5 view .LVU1421
	.loc 2 685 17 view .LVU1422
	.loc 2 685 19 is_stmt 0 view .LVU1423
	movq	%r8, %r14
	shrq	$26, %r14
.LVL330:
	.loc 2 685 27 is_stmt 1 view .LVU1424
	.loc 2 686 5 view .LVU1425
	.loc 2 686 5 view .LVU1426
	.loc 2 686 5 view .LVU1427
	.loc 2 687 5 view .LVU1428
	.loc 2 687 5 view .LVU1429
	.loc 2 687 5 view .LVU1430
	.loc 2 691 5 view .LVU1431
	.loc 2 701 5 view .LVU1432
	.loc 2 701 5 view .LVU1433
	.loc 2 703 5 view .LVU1434
	.loc 2 703 7 is_stmt 0 view .LVU1435
	addq	%rbp, %rax
.LVL331:
	.loc 2 704 5 is_stmt 1 view .LVU1436
	.loc 2 704 5 view .LVU1437
	.loc 2 704 5 view .LVU1438
	.loc 2 706 5 view .LVU1439
	.loc 2 696 25 is_stmt 0 view .LVU1440
	movq	16(%rsp), %rbp
	.loc 2 685 35 view .LVU1441
	salq	$10, %r12
.LVL332:
	.loc 2 692 25 view .LVU1442
	imulq	%rbx, %r10
.LVL333:
	.loc 2 706 8 view .LVU1443
	movq	%rax, %rdi
.LVL334:
	.loc 2 706 19 view .LVU1444
	shrq	$26, %rax
.LVL335:
	.loc 2 729 14 view .LVU1445
	movq	256(%rsp), %rbx
.LVL336:
	.loc 2 691 25 view .LVU1446
	imulq	%rsi, %rdx
.LVL337:
	.loc 2 706 8 view .LVU1447
	andl	$67108863, %edi
.LVL338:
	.loc 2 706 17 is_stmt 1 view .LVU1448
	.loc 2 706 27 view .LVU1449
	.loc 2 694 25 is_stmt 0 view .LVU1450
	imulq	%r11, %r9
.LVL339:
	.loc 2 706 29 view .LVU1451
	addq	%r10, %rdx
.LVL340:
	.loc 2 706 29 view .LVU1452
	addq	%r9, %rdx
	.loc 2 693 25 view .LVU1453
	movq	96(%rsp), %r9
.LVL341:
	.loc 2 693 25 view .LVU1454
	imulq	80(%rsp), %r9
	.loc 2 706 29 view .LVU1455
	addq	%r9, %rdx
	.loc 2 696 25 view .LVU1456
	movq	32(%rsp), %r9
	imulq	%rbp, %r9
.LVL342:
	.loc 2 706 29 view .LVU1457
	addq	%r9, %rdx
	.loc 2 695 25 view .LVU1458
	movq	48(%rsp), %r9
.LVL343:
	.loc 2 695 25 view .LVU1459
	imulq	40(%rsp), %r9
	.loc 2 706 29 view .LVU1460
	addq	%r9, %rdx
	.loc 2 698 25 view .LVU1461
	movq	56(%rsp), %r9
	imulq	%r15, %r9
.LVL344:
	.loc 2 706 29 view .LVU1462
	addq	%r9, %rdx
	.loc 2 697 25 view .LVU1463
	movq	64(%rsp), %r9
.LVL345:
	.loc 2 697 25 view .LVU1464
	imulq	104(%rsp), %r9
	.loc 2 706 29 view .LVU1465
	addq	%r9, %rdx
	.loc 2 699 25 view .LVU1466
	movq	(%rsp), %r9
	imulq	8(%rsp), %r9
.LVL346:
	.loc 2 706 29 view .LVU1467
	addq	%rdx, %r9
.LVL347:
	.loc 2 706 35 view .LVU1468
	imulq	$15632, %rdi, %rdx
	.loc 2 729 37 view .LVU1469
	salq	$10, %rdi
.LVL348:
	.loc 2 706 29 view .LVU1470
	addq	%r12, %r9
	addq	%rdx, %r9
	.loc 2 734 14 view .LVU1471
	imulq	$15632, %rax, %rdx
	.loc 2 706 29 view .LVU1472
	addq	%r14, %r9
.LVL349:
	.loc 2 707 5 is_stmt 1 view .LVU1473
	.loc 2 707 5 view .LVU1474
	.loc 2 707 5 view .LVU1475
	.loc 2 708 5 view .LVU1476
	.loc 2 708 5 view .LVU1477
	.loc 2 708 5 view .LVU1478
	.loc 2 710 5 view .LVU1479
	.loc 2 710 5 view .LVU1480
	.loc 2 713 5 view .LVU1481
	.loc 2 714 5 view .LVU1482
	.loc 2 714 5 view .LVU1483
	.loc 2 714 5 view .LVU1484
	.loc 2 716 5 view .LVU1485
	.loc 2 717 5 view .LVU1486
	.loc 2 717 5 view .LVU1487
	.loc 2 717 5 view .LVU1488
	.loc 2 719 5 view .LVU1489
	.loc 2 720 5 view .LVU1490
	.loc 2 720 5 view .LVU1491
	.loc 2 720 5 view .LVU1492
	.loc 2 722 5 view .LVU1493
	.loc 2 723 5 view .LVU1494
	.loc 2 723 5 view .LVU1495
	.loc 2 723 5 view .LVU1496
	.loc 2 725 5 view .LVU1497
	.loc 2 726 5 view .LVU1498
	.loc 2 726 5 view .LVU1499
	.loc 2 726 5 view .LVU1500
	.loc 2 729 5 view .LVU1501
	.loc 2 729 14 is_stmt 0 view .LVU1502
	movl	%r9d, %esi
.LVL350:
	.loc 2 729 21 view .LVU1503
	shrq	$26, %r9
.LVL351:
	.loc 2 734 9 view .LVU1504
	addq	%rdx, %rdi
	.loc 2 734 19 view .LVU1505
	movq	112(%rsp), %rdx
	.loc 2 729 14 view .LVU1506
	andl	$67108863, %esi
	movl	%esi, 32(%rbx)
.LVL352:
	.loc 2 729 19 is_stmt 1 view .LVU1507
	.loc 2 729 29 view .LVU1508
	.loc 2 730 5 view .LVU1509
	.loc 2 730 5 view .LVU1510
	.loc 2 730 5 view .LVU1511
	.loc 2 731 5 view .LVU1512
	.loc 2 731 5 view .LVU1513
	.loc 2 731 5 view .LVU1514
	.loc 2 734 5 view .LVU1515
	.loc 2 737 14 is_stmt 0 view .LVU1516
	movq	256(%rsp), %rsi
	.loc 2 734 19 view .LVU1517
	andl	$67108863, %edx
	.loc 2 734 9 view .LVU1518
	addq	%rdx, %rdi
	addq	%r9, %rdi
.LVL353:
	.loc 2 735 5 is_stmt 1 view .LVU1519
	.loc 2 735 5 view .LVU1520
	.loc 2 735 5 view .LVU1521
	.loc 2 737 5 view .LVU1522
	.loc 2 737 43 is_stmt 0 view .LVU1523
	salq	$14, %rax
.LVL354:
	.loc 2 744 26 view .LVU1524
	movq	120(%rsp), %r9
	.loc 2 658 8 view .LVU1525
	andl	$67108863, %ecx
.LVL355:
	.loc 2 737 14 view .LVU1526
	movl	%edi, %ebx
	.loc 2 737 28 view .LVU1527
	shrq	$22, %rdi
.LVL356:
	.loc 2 685 8 view .LVU1528
	andl	$67108863, %r8d
.LVL357:
	.loc 2 737 38 view .LVU1529
	addq	%rdi, %rax
	.loc 2 737 14 view .LVU1530
	andl	$4194303, %ebx
	.loc 2 747 10 view .LVU1531
	movd	%r8d, %xmm4
	.loc 2 744 26 view .LVU1532
	andl	$67108863, %r9d
	.loc 2 744 14 view .LVU1533
	imulq	$977, %rax, %rdx
	.loc 2 737 14 view .LVU1534
	movl	%ebx, 36(%rsi)
	.loc 2 737 26 is_stmt 1 view .LVU1535
.LVL358:
	.loc 2 737 36 view .LVU1536
	.loc 2 738 5 view .LVU1537
	.loc 2 738 5 view .LVU1538
	.loc 2 738 5 view .LVU1539
	.loc 2 739 5 view .LVU1540
	.loc 2 739 5 view .LVU1541
	.loc 2 739 5 view .LVU1542
	.loc 2 744 5 view .LVU1543
	.loc 2 745 5 view .LVU1544
	.loc 2 745 5 view .LVU1545
	.loc 2 745 5 view .LVU1546
	.loc 2 747 5 view .LVU1547
	.loc 2 747 19 view .LVU1548
	.loc 2 751 14 is_stmt 0 view .LVU1549
	salq	$6, %rax
.LVL359:
	.loc 2 747 21 view .LVU1550
	leaq	(%rdx,%r9), %r10
	.loc 2 747 14 view .LVU1551
	leal	(%rdx,%r9), %esi
	.loc 2 751 26 view .LVU1552
	movq	128(%rsp), %r9
	.loc 2 761 9 view .LVU1553
	movq	136(%rsp), %rdx
	.loc 2 747 21 view .LVU1554
	shrq	$26, %r10
.LVL360:
	.loc 2 748 5 is_stmt 1 view .LVU1555
	.loc 2 748 5 view .LVU1556
	.loc 2 748 5 view .LVU1557
	.loc 2 749 5 view .LVU1558
	.loc 2 749 5 view .LVU1559
	.loc 2 749 5 view .LVU1560
	.loc 2 751 5 view .LVU1561
	.loc 2 747 14 is_stmt 0 view .LVU1562
	andl	$67108863, %esi
	.loc 2 751 26 view .LVU1563
	andl	$67108863, %r9d
	.loc 2 761 9 view .LVU1564
	andl	$67108863, %edx
	.loc 2 747 14 view .LVU1565
	movd	%esi, %xmm0
	.loc 2 751 26 view .LVU1566
	addq	%r9, %rax
	.loc 2 751 9 view .LVU1567
	addq	%r10, %rax
.LVL361:
	.loc 2 752 5 is_stmt 1 view .LVU1568
	.loc 2 752 5 view .LVU1569
	.loc 2 752 5 view .LVU1570
	.loc 2 753 5 view .LVU1571
	.loc 2 753 5 view .LVU1572
	.loc 2 756 5 view .LVU1573
	.loc 2 756 19 view .LVU1574
	.loc 2 756 21 is_stmt 0 view .LVU1575
	movq	%rax, %r9
	.loc 2 756 14 view .LVU1576
	andl	$67108863, %eax
.LVL362:
	.loc 2 756 21 view .LVU1577
	shrq	$26, %r9
.LVL363:
	.loc 2 757 5 is_stmt 1 view .LVU1578
	.loc 2 757 5 view .LVU1579
	.loc 2 757 5 view .LVU1580
	.loc 2 758 5 view .LVU1581
	.loc 2 758 5 view .LVU1582
	.loc 2 758 5 view .LVU1583
	.loc 2 759 5 view .LVU1584
	.loc 2 759 5 view .LVU1585
	.loc 2 761 5 view .LVU1586
	.loc 2 762 5 view .LVU1587
	.loc 2 762 5 view .LVU1588
	.loc 2 762 5 view .LVU1589
	.loc 2 764 5 view .LVU1590
	.loc 2 747 10 is_stmt 0 view .LVU1591
	movd	%eax, %xmm3
	.loc 2 761 9 view .LVU1592
	leaq	(%rdx,%r9), %rbx
	.loc 2 583 8 view .LVU1593
	movl	144(%rsp), %edx
	.loc 2 747 10 view .LVU1594
	punpckldq	%xmm3, %xmm0
	movq	256(%rsp), %rax
	.loc 2 761 9 view .LVU1595
	movq	%rbx, %xmm1
	.loc 2 583 8 view .LVU1596
	andl	$67108863, %edx
	.loc 2 747 10 view .LVU1597
	movd	%edx, %xmm2
	punpckldq	%xmm2, %xmm1
	punpcklqdq	%xmm1, %xmm0
	movd	%ecx, %xmm1
	movups	%xmm0, (%rax)
	.loc 2 608 8 view .LVU1598
	movl	152(%rsp), %eax
	.loc 2 747 10 view .LVU1599
	punpckldq	%xmm4, %xmm1
	.loc 2 608 8 view .LVU1600
	andl	$67108863, %eax
	movd	%eax, %xmm0
	.loc 2 633 8 view .LVU1601
	movl	160(%rsp), %eax
	andl	$67108863, %eax
	.loc 2 747 10 view .LVU1602
	movd	%eax, %xmm5
	movq	256(%rsp), %rax
	punpckldq	%xmm5, %xmm0
	punpcklqdq	%xmm1, %xmm0
	movups	%xmm0, 16(%rax)
	.loc 2 765 5 is_stmt 1 view .LVU1603
	.loc 2 765 5 view .LVU1604
	.loc 2 765 5 view .LVU1605
	.loc 2 767 1 is_stmt 0 view .LVU1606
	addq	$184, %rsp
.LCFI82:
	.cfi_def_cfa_offset 72
	popq	%rbx
.LCFI83:
	.cfi_restore 3
	.cfi_def_cfa_offset 64
	popq	%rsi
.LCFI84:
	.cfi_restore 4
	.cfi_def_cfa_offset 56
	popq	%rdi
.LCFI85:
	.cfi_restore 5
	.cfi_def_cfa_offset 48
	popq	%rbp
.LCFI86:
	.cfi_restore 6
	.cfi_def_cfa_offset 40
	popq	%r12
.LCFI87:
	.cfi_restore 12
	.cfi_def_cfa_offset 32
	popq	%r13
.LCFI88:
	.cfi_restore 13
	.cfi_def_cfa_offset 24
	popq	%r14
.LCFI89:
	.cfi_restore 14
	.cfi_def_cfa_offset 16
	popq	%r15
.LCFI90:
	.cfi_restore 15
	.cfi_def_cfa_offset 8
	ret
	.cfi_endproc
.LFE132:
	.seh_endproc
	.p2align 4
	.def	secp256k1_fe_sqr_inner;	.scl	3;	.type	32;	.endef
	.seh_proc	secp256k1_fe_sqr_inner
secp256k1_fe_sqr_inner:
.LVL364:
.LFB133:
	.loc 2 769 85 is_stmt 1 view -0
	.cfi_startproc
	.loc 2 769 85 is_stmt 0 view .LVU1608
	pushq	%r15
	.seh_pushreg	%r15
.LCFI91:
	.cfi_def_cfa_offset 16
	.cfi_offset 15, -16
	pushq	%r14
	.seh_pushreg	%r14
.LCFI92:
	.cfi_def_cfa_offset 24
	.cfi_offset 14, -24
	pushq	%r13
	.seh_pushreg	%r13
.LCFI93:
	.cfi_def_cfa_offset 32
	.cfi_offset 13, -32
	pushq	%r12
	.seh_pushreg	%r12
.LCFI94:
	.cfi_def_cfa_offset 40
	.cfi_offset 12, -40
	pushq	%rbp
	.seh_pushreg	%rbp
.LCFI95:
	.cfi_def_cfa_offset 48
	.cfi_offset 6, -48
	pushq	%rdi
	.seh_pushreg	%rdi
.LCFI96:
	.cfi_def_cfa_offset 56
	.cfi_offset 5, -56
	pushq	%rsi
	.seh_pushreg	%rsi
.LCFI97:
	.cfi_def_cfa_offset 64
	.cfi_offset 4, -64
	pushq	%rbx
	.seh_pushreg	%rbx
.LCFI98:
	.cfi_def_cfa_offset 72
	.cfi_offset 3, -72
	subq	$120, %rsp
	.seh_stackalloc	120
.LCFI99:
	.cfi_def_cfa_offset 192
	.seh_endprologue
	.loc 2 770 5 is_stmt 1 view .LVU1609
	.loc 2 771 5 view .LVU1610
	.loc 2 772 5 view .LVU1611
	.loc 2 773 5 view .LVU1612
.LVL365:
	.loc 2 775 5 view .LVU1613
	.loc 2 775 5 view .LVU1614
	.loc 2 775 5 view .LVU1615
	.loc 2 776 5 view .LVU1616
	.loc 2 776 5 view .LVU1617
	.loc 2 776 5 view .LVU1618
	.loc 2 777 5 view .LVU1619
	.loc 2 777 5 view .LVU1620
	.loc 2 777 5 view .LVU1621
	.loc 2 778 5 view .LVU1622
	.loc 2 778 5 view .LVU1623
	.loc 2 778 5 view .LVU1624
	.loc 2 779 5 view .LVU1625
	.loc 2 779 5 view .LVU1626
	.loc 2 779 5 view .LVU1627
	.loc 2 780 5 view .LVU1628
	.loc 2 780 5 view .LVU1629
	.loc 2 780 5 view .LVU1630
	.loc 2 781 5 view .LVU1631
	.loc 2 781 5 view .LVU1632
	.loc 2 781 5 view .LVU1633
	.loc 2 782 5 view .LVU1634
	.loc 2 782 5 view .LVU1635
	.loc 2 782 5 view .LVU1636
	.loc 2 783 5 view .LVU1637
	.loc 2 783 5 view .LVU1638
	.loc 2 783 5 view .LVU1639
	.loc 2 784 5 view .LVU1640
	.loc 2 784 5 view .LVU1641
	.loc 2 784 5 view .LVU1642
	.loc 2 791 5 view .LVU1643
	.loc 2 791 22 is_stmt 0 view .LVU1644
	movl	(%rdx), %r13d
	.loc 2 791 32 view .LVU1645
	movl	36(%rdx), %eax
	.loc 2 792 22 view .LVU1646
	movl	4(%rdx), %r8d
	.loc 2 792 32 view .LVU1647
	movl	32(%rdx), %r11d
	.loc 2 791 10 view .LVU1648
	leal	(%r13,%r13), %r9d
	.loc 2 794 22 view .LVU1649
	movl	12(%rdx), %edi
	.loc 2 803 8 view .LVU1650
	imulq	%r13, %r13
	.loc 2 769 85 view .LVU1651
	movq	%rcx, 192(%rsp)
	movq	%rdx, %rcx
.LVL366:
	.loc 2 794 10 view .LVU1652
	leal	(%rdi,%rdi), %edx
.LVL367:
	.loc 2 795 32 view .LVU1653
	movl	20(%rcx), %r15d
	.loc 2 793 22 view .LVU1654
	movl	8(%rcx), %r10d
	.loc 2 794 10 view .LVU1655
	movl	%edi, 40(%rsp)
	.loc 2 794 32 view .LVU1656
	movl	24(%rcx), %ebp
	.loc 2 793 32 view .LVU1657
	movl	28(%rcx), %esi
	.loc 2 792 32 view .LVU1658
	movl	%r11d, 52(%rsp)
	.loc 2 795 22 view .LVU1659
	movl	16(%rcx), %r12d
	.loc 2 791 29 view .LVU1660
	movq	%r9, %rcx
.LVL368:
	.loc 2 810 25 view .LVU1661
	movq	%r15, 32(%rsp)
	.loc 2 795 32 view .LVU1662
	movq	%r15, %rdi
	.loc 2 791 29 view .LVU1663
	imulq	%rax, %rcx
	.loc 2 793 32 view .LVU1664
	movq	%rsi, 16(%rsp)
	.loc 2 808 29 view .LVU1665
	movq	16(%rsp), %r14
	.loc 2 793 32 view .LVU1666
	movl	%esi, 72(%rsp)
	.loc 2 792 29 view .LVU1667
	leal	(%r8,%r8), %esi
	.loc 2 794 32 view .LVU1668
	movl	%ebp, 64(%rsp)
	.loc 2 791 29 view .LVU1669
	movq	%rcx, %rbx
	.loc 2 792 29 view .LVU1670
	movq	%rsi, %rcx
	.loc 2 794 29 view .LVU1671
	movq	%rbp, 24(%rsp)
	.loc 2 792 29 view .LVU1672
	imulq	%r11, %rcx
	.loc 2 795 10 view .LVU1673
	movl	%r12d, 76(%rsp)
	addl	%r12d, %r12d
	movl	%r12d, %r12d
	.loc 2 806 29 view .LVU1674
	movq	%rsi, 8(%rsp)
	.loc 2 848 29 view .LVU1675
	movq	%rdx, 56(%rsp)
	.loc 2 794 8 view .LVU1676
	addq	%rbx, %rcx
	.loc 2 794 29 view .LVU1677
	movq	%rdx, %rbx
	imulq	%rbp, %rbx
	.loc 2 793 29 view .LVU1678
	movq	16(%rsp), %rbp
	.loc 2 794 8 view .LVU1679
	addq	%rcx, %rbx
	.loc 2 793 29 view .LVU1680
	leal	(%r10,%r10), %ecx
	imulq	%rbp, %rcx
	.loc 2 794 8 view .LVU1681
	addq	%rbx, %rcx
	.loc 2 795 29 view .LVU1682
	movq	%r15, %rbx
	imulq	%r12, %rbx
	.loc 2 791 8 view .LVU1683
	addq	%rbx, %rcx
.LVL369:
	.loc 2 798 5 is_stmt 1 view .LVU1684
	.loc 2 798 17 view .LVU1685
	.loc 2 798 19 is_stmt 0 view .LVU1686
	movq	%rcx, 80(%rsp)
	shrq	$26, %rcx
.LVL370:
	.loc 2 798 19 view .LVU1687
	movq	%rcx, %rbp
.LVL371:
	.loc 2 799 5 is_stmt 1 view .LVU1688
	.loc 2 799 5 view .LVU1689
	.loc 2 799 5 view .LVU1690
	.loc 2 800 5 view .LVU1691
	.loc 2 800 5 view .LVU1692
	.loc 2 800 5 view .LVU1693
	.loc 2 803 5 view .LVU1694
	.loc 2 804 5 view .LVU1695
	.loc 2 804 5 view .LVU1696
	.loc 2 804 5 view .LVU1697
	.loc 2 806 5 view .LVU1698
	.loc 2 806 29 is_stmt 0 view .LVU1699
	movq	%rax, %rcx
.LVL372:
	.loc 2 806 29 view .LVU1700
	imulq	%rsi, %rcx
	.loc 2 807 29 view .LVU1701
	leal	(%r10,%r10), %esi
	.loc 2 806 29 view .LVU1702
	movq	%rcx, %rbx
	.loc 2 807 29 view .LVU1703
	movq	%rsi, %rcx
	imulq	%r11, %rcx
	.loc 2 807 8 view .LVU1704
	addq	%rbx, %rcx
	.loc 2 810 25 view .LVU1705
	movq	%r15, %rbx
	imulq	%r15, %rbx
	.loc 2 809 29 view .LVU1706
	movq	24(%rsp), %r15
	.loc 2 810 8 view .LVU1707
	addq	%rcx, %rbx
	.loc 2 809 29 view .LVU1708
	movq	%r15, %rcx
	imulq	%r12, %rcx
	.loc 2 810 8 view .LVU1709
	addq	%rbx, %rcx
	.loc 2 808 29 view .LVU1710
	movq	%rdx, %rbx
	imulq	%r14, %rbx
	.loc 2 810 8 view .LVU1711
	addq	%rcx, %rbx
	.loc 2 806 7 view .LVU1712
	addq	%rbp, %rbx
.LVL373:
	.loc 2 811 5 is_stmt 1 view .LVU1713
	.loc 2 811 5 view .LVU1714
	.loc 2 811 5 view .LVU1715
	.loc 2 813 5 view .LVU1716
	.loc 2 813 8 is_stmt 0 view .LVU1717
	movq	%rbx, %rbp
	.loc 2 813 19 view .LVU1718
	shrq	$26, %rbx
.LVL374:
	.loc 2 813 8 view .LVU1719
	andl	$67108863, %ebp
.LVL375:
	.loc 2 813 17 is_stmt 1 view .LVU1720
	.loc 2 813 27 view .LVU1721
	.loc 2 813 35 is_stmt 0 view .LVU1722
	imulq	$15632, %rbp, %rcx
	.loc 2 818 35 view .LVU1723
	salq	$10, %rbp
.LVL376:
	.loc 2 813 29 view .LVU1724
	addq	%rcx, %r13
.LVL377:
	.loc 2 814 5 is_stmt 1 view .LVU1725
	.loc 2 814 5 view .LVU1726
	.loc 2 814 5 view .LVU1727
	.loc 2 815 5 view .LVU1728
	.loc 2 815 5 view .LVU1729
	.loc 2 815 5 view .LVU1730
	.loc 2 816 5 view .LVU1731
	.loc 2 816 5 view .LVU1732
	.loc 2 816 5 view .LVU1733
	.loc 2 818 5 view .LVU1734
	.loc 2 818 17 view .LVU1735
	.loc 2 818 19 is_stmt 0 view .LVU1736
	movq	%r13, 88(%rsp)
	shrq	$26, %r13
.LVL378:
	.loc 2 818 19 view .LVU1737
	movq	%r13, %rcx
.LVL379:
	.loc 2 818 27 is_stmt 1 view .LVU1738
	.loc 2 819 5 view .LVU1739
	.loc 2 819 5 view .LVU1740
	.loc 2 819 5 view .LVU1741
	.loc 2 820 5 view .LVU1742
	.loc 2 820 5 view .LVU1743
	.loc 2 820 5 view .LVU1744
	.loc 2 824 5 view .LVU1745
	.loc 2 824 29 is_stmt 0 view .LVU1746
	movq	%r9, %r13
	imulq	%r8, %r13
	.loc 2 824 7 view .LVU1747
	addq	%r13, %rbp
	.loc 2 830 10 view .LVU1748
	leal	(%rdi,%rdi), %r13d
	.loc 2 828 29 view .LVU1749
	movq	%rdx, %rdi
.LVL380:
	.loc 2 824 7 view .LVU1750
	addq	%rcx, %rbp
.LVL381:
	.loc 2 825 5 is_stmt 1 view .LVU1751
	.loc 2 825 5 view .LVU1752
	.loc 2 825 5 view .LVU1753
	.loc 2 827 5 view .LVU1754
	.loc 2 827 29 is_stmt 0 view .LVU1755
	movq	%rsi, %rcx
	imulq	%rax, %rcx
	.loc 2 828 29 view .LVU1756
	imulq	%r11, %rdi
	.loc 2 845 25 view .LVU1757
	imulq	%r8, %r8
	.loc 2 830 8 view .LVU1758
	addq	%rcx, %rdi
	.loc 2 830 29 view .LVU1759
	movq	%r15, %rcx
	imulq	%r13, %rcx
	.loc 2 830 8 view .LVU1760
	addq	%rdi, %rcx
	.loc 2 829 29 view .LVU1761
	movq	%r14, %rdi
	imulq	%r12, %rdi
	.loc 2 830 8 view .LVU1762
	addq	%rdi, %rcx
	.loc 2 827 7 view .LVU1763
	addq	%rbx, %rcx
.LVL382:
	.loc 2 831 5 is_stmt 1 view .LVU1764
	.loc 2 831 5 view .LVU1765
	.loc 2 831 5 view .LVU1766
	.loc 2 833 5 view .LVU1767
	.loc 2 833 8 is_stmt 0 view .LVU1768
	movq	%rcx, %rdi
	.loc 2 833 19 view .LVU1769
	shrq	$26, %rcx
.LVL383:
	.loc 2 833 8 view .LVU1770
	andl	$67108863, %edi
.LVL384:
	.loc 2 833 17 is_stmt 1 view .LVU1771
	.loc 2 833 27 view .LVU1772
	.loc 2 833 35 is_stmt 0 view .LVU1773
	imulq	$15632, %rdi, %rbx
	.loc 2 838 35 view .LVU1774
	salq	$10, %rdi
.LVL385:
	.loc 2 833 29 view .LVU1775
	addq	%rbp, %rbx
.LVL386:
	.loc 2 834 5 is_stmt 1 view .LVU1776
	.loc 2 834 5 view .LVU1777
	.loc 2 834 5 view .LVU1778
	.loc 2 835 5 view .LVU1779
	.loc 2 835 5 view .LVU1780
	.loc 2 835 5 view .LVU1781
	.loc 2 836 5 view .LVU1782
	.loc 2 836 5 view .LVU1783
	.loc 2 836 5 view .LVU1784
	.loc 2 838 5 view .LVU1785
	.loc 2 838 17 view .LVU1786
	.loc 2 838 19 is_stmt 0 view .LVU1787
	movq	%rbx, 96(%rsp)
	movq	%rbx, %r14
.LVL387:
	.loc 2 848 29 view .LVU1788
	movq	%rdx, %rbx
.LVL388:
	.loc 2 848 29 view .LVU1789
	imulq	%rax, %rbx
	.loc 2 838 19 view .LVU1790
	shrq	$26, %r14
.LVL389:
	.loc 2 838 27 is_stmt 1 view .LVU1791
	.loc 2 839 5 view .LVU1792
	.loc 2 839 5 view .LVU1793
	.loc 2 839 5 view .LVU1794
	.loc 2 840 5 view .LVU1795
	.loc 2 840 5 view .LVU1796
	.loc 2 840 5 view .LVU1797
	.loc 2 844 5 view .LVU1798
	.loc 2 846 5 view .LVU1799
	.loc 2 846 5 view .LVU1800
	.loc 2 846 5 view .LVU1801
	.loc 2 848 5 view .LVU1802
	.loc 2 848 29 is_stmt 0 view .LVU1803
	movq	%rbx, %rbp
	.loc 2 849 29 view .LVU1804
	movq	%r11, %rbx
	imulq	%r12, %rbx
	.loc 2 849 8 view .LVU1805
	addq	%rbp, %rbx
	.loc 2 851 25 view .LVU1806
	movq	%r15, %rbp
	imulq	%r15, %rbp
	.loc 2 851 8 view .LVU1807
	addq	%rbx, %rbp
	.loc 2 850 29 view .LVU1808
	movq	16(%rsp), %rbx
	imulq	%r13, %rbx
	.loc 2 851 8 view .LVU1809
	addq	%rbx, %rbp
	.loc 2 848 7 view .LVU1810
	addq	%rcx, %rbp
.LVL390:
	.loc 2 852 5 is_stmt 1 view .LVU1811
	.loc 2 852 5 view .LVU1812
	.loc 2 852 5 view .LVU1813
	.loc 2 854 5 view .LVU1814
	.loc 2 844 29 is_stmt 0 view .LVU1815
	movq	%r9, %rcx
	imulq	%r10, %rcx
	.loc 2 854 8 view .LVU1816
	movq	%rbp, %rbx
	.loc 2 854 19 view .LVU1817
	shrq	$26, %rbp
.LVL391:
	.loc 2 854 8 view .LVU1818
	andl	$67108863, %ebx
.LVL392:
	.loc 2 854 17 is_stmt 1 view .LVU1819
	.loc 2 854 27 view .LVU1820
	.loc 2 845 8 is_stmt 0 view .LVU1821
	addq	%rcx, %r8
	.loc 2 854 35 view .LVU1822
	imulq	$15632, %rbx, %rcx
	.loc 2 854 29 view .LVU1823
	addq	%r8, %rdi
	addq	%rcx, %rdi
	.loc 2 870 29 view .LVU1824
	movq	%r11, %rcx
	.loc 2 854 29 view .LVU1825
	addq	%r14, %rdi
.LVL393:
	.loc 2 855 5 is_stmt 1 view .LVU1826
	.loc 2 855 5 view .LVU1827
	.loc 2 855 5 view .LVU1828
	.loc 2 856 5 view .LVU1829
	.loc 2 856 5 view .LVU1830
	.loc 2 856 5 view .LVU1831
	.loc 2 857 5 view .LVU1832
	.loc 2 857 5 view .LVU1833
	.loc 2 857 5 view .LVU1834
	.loc 2 859 5 view .LVU1835
	.loc 2 859 17 view .LVU1836
	.loc 2 859 19 is_stmt 0 view .LVU1837
	movq	%rdi, %r8
	movq	%rdi, 104(%rsp)
	.loc 2 865 32 view .LVU1838
	movl	40(%rsp), %edi
.LVL394:
	.loc 2 859 19 view .LVU1839
	shrq	$26, %r8
.LVL395:
	.loc 2 859 19 view .LVU1840
	movq	%r8, %r14
.LVL396:
	.loc 2 859 27 is_stmt 1 view .LVU1841
	.loc 2 860 5 view .LVU1842
	.loc 2 860 5 view .LVU1843
	.loc 2 860 5 view .LVU1844
	.loc 2 861 5 view .LVU1845
	.loc 2 861 5 view .LVU1846
	.loc 2 861 5 view .LVU1847
	.loc 2 865 5 view .LVU1848
	.loc 2 867 5 view .LVU1849
	.loc 2 867 5 view .LVU1850
	.loc 2 867 5 view .LVU1851
	.loc 2 869 5 view .LVU1852
	.loc 2 871 10 is_stmt 0 view .LVU1853
	movl	64(%rsp), %r8d
.LVL397:
	.loc 2 871 10 view .LVU1854
	addl	%r8d, %r8d
	.loc 2 869 29 view .LVU1855
	imulq	%rax, %r12
.LVL398:
	.loc 2 859 35 view .LVU1856
	salq	$10, %rbx
.LVL399:
	.loc 2 870 29 view .LVU1857
	imulq	%r13, %rcx
	.loc 2 871 10 view .LVU1858
	movl	%r8d, %r8d
	.loc 2 890 29 view .LVU1859
	imulq	%rax, %r13
.LVL400:
	.loc 2 870 8 view .LVU1860
	addq	%rcx, %r12
	.loc 2 871 29 view .LVU1861
	movq	16(%rsp), %rcx
	.loc 2 866 29 view .LVU1862
	movq	8(%rsp), %rdx
.LVL401:
	.loc 2 908 29 view .LVU1863
	movq	%rsi, 40(%rsp)
	.loc 2 871 29 view .LVU1864
	imulq	%r8, %rcx
	.loc 2 871 8 view .LVU1865
	addq	%r12, %rcx
	.loc 2 869 7 view .LVU1866
	addq	%rbp, %rcx
.LVL402:
	.loc 2 872 5 is_stmt 1 view .LVU1867
	.loc 2 872 5 view .LVU1868
	.loc 2 872 5 view .LVU1869
	.loc 2 874 5 view .LVU1870
	.loc 2 874 8 is_stmt 0 view .LVU1871
	movq	%rcx, %rbp
	.loc 2 874 19 view .LVU1872
	shrq	$26, %rcx
.LVL403:
	.loc 2 874 8 view .LVU1873
	andl	$67108863, %ebp
.LVL404:
	.loc 2 874 8 view .LVU1874
	movq	%rbp, %r12
.LVL405:
	.loc 2 874 17 is_stmt 1 view .LVU1875
	.loc 2 874 27 view .LVU1876
	.loc 2 865 29 is_stmt 0 view .LVU1877
	movq	%r9, %rbp
.LVL406:
	.loc 2 865 29 view .LVU1878
	imulq	%rdi, %rbp
.LVL407:
	.loc 2 865 29 view .LVU1879
	movq	%rbp, %r15
.LVL408:
	.loc 2 866 29 view .LVU1880
	movq	%rdx, %rbp
.LVL409:
	.loc 2 866 29 view .LVU1881
	imulq	%r10, %rbp
.LVL410:
	.loc 2 887 25 view .LVU1882
	imulq	%r10, %r10
	.loc 2 874 29 view .LVU1883
	addq	%r15, %rbp
.LVL411:
	.loc 2 874 29 view .LVU1884
	addq	%rbp, %rbx
.LVL412:
	.loc 2 874 35 view .LVU1885
	imulq	$15632, %r12, %rbp
	.loc 2 879 35 view .LVU1886
	salq	$10, %r12
.LVL413:
	.loc 2 874 29 view .LVU1887
	addq	%rbp, %rbx
	leaq	(%rbx,%r14), %rbp
.LVL414:
	.loc 2 875 5 is_stmt 1 view .LVU1888
	.loc 2 875 5 view .LVU1889
	.loc 2 875 5 view .LVU1890
	.loc 2 876 5 view .LVU1891
	.loc 2 876 5 view .LVU1892
	.loc 2 876 5 view .LVU1893
	.loc 2 879 5 view .LVU1894
	.loc 2 879 17 view .LVU1895
	.loc 2 891 29 is_stmt 0 view .LVU1896
	movq	%r11, %rbx
	imulq	%r8, %rbx
	.loc 2 879 19 view .LVU1897
	movq	%rbp, 64(%rsp)
	shrq	$26, %rbp
.LVL415:
	.loc 2 879 19 view .LVU1898
	movq	%rbp, %r14
.LVL416:
	.loc 2 879 27 is_stmt 1 view .LVU1899
	.loc 2 880 5 view .LVU1900
	.loc 2 880 5 view .LVU1901
	.loc 2 880 5 view .LVU1902
	.loc 2 881 5 view .LVU1903
	.loc 2 881 5 view .LVU1904
	.loc 2 881 5 view .LVU1905
	.loc 2 885 5 view .LVU1906
	.loc 2 885 32 is_stmt 0 view .LVU1907
	movl	76(%rsp), %ebp
.LVL417:
	.loc 2 888 5 is_stmt 1 view .LVU1908
	.loc 2 888 5 view .LVU1909
	.loc 2 888 5 view .LVU1910
	.loc 2 890 5 view .LVU1911
	.loc 2 891 8 is_stmt 0 view .LVU1912
	addq	%rbx, %r13
	.loc 2 892 25 view .LVU1913
	movq	16(%rsp), %rbx
	imulq	%rbx, %rbx
	.loc 2 892 8 view .LVU1914
	addq	%r13, %rbx
	.loc 2 885 29 view .LVU1915
	movq	%r9, %r13
	imulq	%rbp, %r13
	.loc 2 890 7 view .LVU1916
	addq	%rcx, %rbx
.LVL418:
	.loc 2 893 5 is_stmt 1 view .LVU1917
	.loc 2 893 5 view .LVU1918
	.loc 2 893 5 view .LVU1919
	.loc 2 895 5 view .LVU1920
	.loc 2 895 8 is_stmt 0 view .LVU1921
	movq	%rbx, %rcx
	.loc 2 895 19 view .LVU1922
	shrq	$26, %rbx
.LVL419:
	.loc 2 895 8 view .LVU1923
	andl	$67108863, %ecx
.LVL420:
	.loc 2 895 17 is_stmt 1 view .LVU1924
	.loc 2 895 27 view .LVU1925
	.loc 2 885 29 is_stmt 0 view .LVU1926
	movq	%r13, %r15
	.loc 2 886 29 view .LVU1927
	movq	%rdx, %r13
	.loc 2 906 29 view .LVU1928
	movq	32(%rsp), %rdx
	.loc 2 886 29 view .LVU1929
	imulq	%rdi, %r13
	.loc 2 886 8 view .LVU1930
	addq	%r15, %r13
	.loc 2 887 8 view .LVU1931
	addq	%r13, %r10
	.loc 2 912 29 view .LVU1932
	movq	%r11, %r13
	.loc 2 895 29 view .LVU1933
	addq	%r10, %r12
	.loc 2 895 35 view .LVU1934
	imulq	$15632, %rcx, %r10
	.loc 2 895 29 view .LVU1935
	addq	%r10, %r12
	.loc 2 912 10 view .LVU1936
	movl	72(%rsp), %r10d
	.loc 2 911 29 view .LVU1937
	imulq	%rax, %r8
.LVL421:
	.loc 2 900 35 view .LVU1938
	salq	$10, %rcx
.LVL422:
	.loc 2 895 29 view .LVU1939
	leaq	(%r12,%r14), %r15
.LVL423:
	.loc 2 896 5 is_stmt 1 view .LVU1940
	.loc 2 896 5 view .LVU1941
	.loc 2 896 5 view .LVU1942
	.loc 2 897 5 view .LVU1943
	.loc 2 897 5 view .LVU1944
	.loc 2 897 5 view .LVU1945
	.loc 2 900 5 view .LVU1946
	.loc 2 900 17 view .LVU1947
	.loc 2 907 29 is_stmt 0 view .LVU1948
	movq	8(%rsp), %r14
	.loc 2 912 10 view .LVU1949
	addl	%r10d, %r10d
	.loc 2 900 19 view .LVU1950
	movq	%r15, %r12
	.loc 2 912 10 view .LVU1951
	movl	%r10d, %r10d
	.loc 2 907 29 view .LVU1952
	imulq	%rbp, %r14
	.loc 2 900 19 view .LVU1953
	shrq	$26, %r12
.LVL424:
	.loc 2 900 27 is_stmt 1 view .LVU1954
	.loc 2 901 5 view .LVU1955
	.loc 2 901 5 view .LVU1956
	.loc 2 901 5 view .LVU1957
	.loc 2 902 5 view .LVU1958
	.loc 2 902 5 view .LVU1959
	.loc 2 902 5 view .LVU1960
	.loc 2 906 5 view .LVU1961
	.loc 2 909 5 view .LVU1962
	.loc 2 909 5 view .LVU1963
	.loc 2 909 5 view .LVU1964
	.loc 2 911 5 view .LVU1965
	.loc 2 912 29 is_stmt 0 view .LVU1966
	imulq	%r10, %r13
	.loc 2 932 29 view .LVU1967
	imulq	%rax, %r10
	.loc 2 912 8 view .LVU1968
	addq	%r13, %r8
	.loc 2 906 29 view .LVU1969
	movq	%rdx, %r13
	imulq	%r9, %r13
	.loc 2 911 7 view .LVU1970
	addq	%rbx, %r8
.LVL425:
	.loc 2 913 5 is_stmt 1 view .LVU1971
	.loc 2 913 5 view .LVU1972
	.loc 2 913 5 view .LVU1973
	.loc 2 915 5 view .LVU1974
	.loc 2 915 8 is_stmt 0 view .LVU1975
	movq	%r8, %rbx
	.loc 2 915 19 view .LVU1976
	shrq	$26, %r8
.LVL426:
	.loc 2 915 8 view .LVU1977
	andl	$67108863, %ebx
.LVL427:
	.loc 2 915 17 is_stmt 1 view .LVU1978
	.loc 2 915 27 view .LVU1979
	.loc 2 915 29 is_stmt 0 view .LVU1980
	addq	%r13, %r14
	.loc 2 908 29 view .LVU1981
	movq	%rsi, %r13
	.loc 2 927 29 view .LVU1982
	movq	8(%rsp), %rsi
.LVL428:
	.loc 2 908 29 view .LVU1983
	imulq	%rdi, %r13
.LVL429:
	.loc 2 929 25 view .LVU1984
	imulq	%rdi, %rdi
	.loc 2 915 29 view .LVU1985
	addq	%r14, %r13
	.loc 2 926 29 view .LVU1986
	movq	24(%rsp), %r14
	.loc 2 915 29 view .LVU1987
	addq	%r13, %rcx
	.loc 2 915 35 view .LVU1988
	imulq	$15632, %rbx, %r13
	.loc 2 926 29 view .LVU1989
	imulq	%r9, %r14
	.loc 2 915 29 view .LVU1990
	addq	%r13, %rcx
	addq	%r12, %rcx
.LVL430:
	.loc 2 916 5 is_stmt 1 view .LVU1991
	.loc 2 916 5 view .LVU1992
	.loc 2 916 5 view .LVU1993
	.loc 2 917 5 view .LVU1994
	.loc 2 917 5 view .LVU1995
	.loc 2 917 5 view .LVU1996
	.loc 2 920 5 view .LVU1997
	.loc 2 920 17 view .LVU1998
	.loc 2 920 19 is_stmt 0 view .LVU1999
	movq	%rcx, %r12
	shrq	$26, %r12
	movq	%r12, %r13
.LVL431:
	.loc 2 920 27 is_stmt 1 view .LVU2000
	.loc 2 921 5 view .LVU2001
	.loc 2 921 5 view .LVU2002
	.loc 2 921 5 view .LVU2003
	.loc 2 922 5 view .LVU2004
	.loc 2 922 5 view .LVU2005
	.loc 2 922 5 view .LVU2006
	.loc 2 926 5 view .LVU2007
	.loc 2 930 5 view .LVU2008
	.loc 2 930 5 view .LVU2009
	.loc 2 930 5 view .LVU2010
	.loc 2 932 5 view .LVU2011
	.loc 2 933 25 is_stmt 0 view .LVU2012
	movq	%r11, %r12
	imulq	%r11, %r12
	.loc 2 933 8 view .LVU2013
	addq	%r12, %r10
	.loc 2 932 7 view .LVU2014
	addq	%r8, %r10
.LVL432:
	.loc 2 934 5 is_stmt 1 view .LVU2015
	.loc 2 934 5 view .LVU2016
	.loc 2 934 5 view .LVU2017
	.loc 2 936 5 view .LVU2018
	.loc 2 927 29 is_stmt 0 view .LVU2019
	movq	%rdx, %r8
	imulq	%rsi, %r8
	.loc 2 936 8 view .LVU2020
	movq	%r10, %r12
	.loc 2 936 19 view .LVU2021
	shrq	$26, %r10
.LVL433:
	.loc 2 936 8 view .LVU2022
	andl	$67108863, %r12d
.LVL434:
	.loc 2 936 17 is_stmt 1 view .LVU2023
	.loc 2 936 27 view .LVU2024
	.loc 2 927 8 is_stmt 0 view .LVU2025
	addq	%r14, %r8
	.loc 2 936 29 view .LVU2026
	addq	%r8, %rdi
	.loc 2 928 29 view .LVU2027
	movq	40(%rsp), %r8
	.loc 2 928 29 view .LVU2028
	imulq	%rbp, %r8
	.loc 2 936 29 view .LVU2029
	addq	%rdi, %r8
	.loc 2 920 35 view .LVU2030
	salq	$10, %rbx
.LVL435:
	.loc 2 954 10 view .LVU2031
	movl	52(%rsp), %edi
	.loc 2 936 29 view .LVU2032
	addq	%r8, %rbx
	.loc 2 936 35 view .LVU2033
	imulq	$15632, %r12, %r8
	.loc 2 941 35 view .LVU2034
	salq	$10, %r12
.LVL436:
	.loc 2 936 29 view .LVU2035
	addq	%r8, %rbx
	leaq	(%rbx,%r13), %r8
.LVL437:
	.loc 2 937 5 is_stmt 1 view .LVU2036
	.loc 2 937 5 view .LVU2037
	.loc 2 937 5 view .LVU2038
	.loc 2 938 5 view .LVU2039
	.loc 2 938 5 view .LVU2040
	.loc 2 938 5 view .LVU2041
	.loc 2 941 5 view .LVU2042
	.loc 2 941 17 view .LVU2043
	.loc 2 941 19 is_stmt 0 view .LVU2044
	movq	%r8, %rbx
	shrq	$26, %rbx
	movq	%rbx, %r13
.LVL438:
	.loc 2 941 27 is_stmt 1 view .LVU2045
	.loc 2 942 5 view .LVU2046
	.loc 2 942 5 view .LVU2047
	.loc 2 942 5 view .LVU2048
	.loc 2 943 5 view .LVU2049
	.loc 2 943 5 view .LVU2050
	.loc 2 943 5 view .LVU2051
	.loc 2 947 5 view .LVU2052
	.loc 2 952 5 view .LVU2053
	.loc 2 952 5 view .LVU2054
	.loc 2 954 5 view .LVU2055
	.loc 2 954 10 is_stmt 0 view .LVU2056
	leal	(%rdi,%rdi), %ebx
	.loc 2 947 29 view .LVU2057
	movq	16(%rsp), %rdi
	.loc 2 954 29 view .LVU2058
	imulq	%rax, %rbx
	.loc 2 947 29 view .LVU2059
	imulq	%r9, %rdi
	.loc 2 977 25 view .LVU2060
	imulq	%rax, %rax
.LVL439:
	.loc 2 954 7 view .LVU2061
	addq	%rbx, %r10
.LVL440:
	.loc 2 955 5 is_stmt 1 view .LVU2062
	.loc 2 955 5 view .LVU2063
	.loc 2 955 5 view .LVU2064
	.loc 2 957 5 view .LVU2065
	.loc 2 969 29 is_stmt 0 view .LVU2066
	imulq	%r11, %r9
	.loc 2 947 29 view .LVU2067
	movq	%rdi, %r14
	.loc 2 948 29 view .LVU2068
	movq	24(%rsp), %rdi
	.loc 2 957 8 view .LVU2069
	movq	%r10, %rbx
	.loc 2 957 19 view .LVU2070
	shrq	$26, %r10
.LVL441:
	.loc 2 957 8 view .LVU2071
	andl	$67108863, %ebx
.LVL442:
	.loc 2 957 17 is_stmt 1 view .LVU2072
	.loc 2 957 27 view .LVU2073
	.loc 2 977 7 is_stmt 0 view .LVU2074
	addq	%r10, %rax
	.loc 2 948 29 view .LVU2075
	imulq	%rsi, %rdi
	.loc 2 950 29 view .LVU2076
	movq	56(%rsp), %rsi
	.loc 2 980 8 view .LVU2077
	movq	%rax, %r10
.LVL443:
	.loc 2 980 19 view .LVU2078
	shrq	$26, %rax
	.loc 2 980 8 view .LVU2079
	andl	$67108863, %r10d
	.loc 2 957 29 view .LVU2080
	addq	%r14, %rdi
	.loc 2 950 29 view .LVU2081
	movq	%rsi, %r14
	.loc 2 950 29 view .LVU2082
	imulq	%rbp, %r14
	.loc 2 973 25 view .LVU2083
	imulq	%rbp, %rbp
	.loc 2 957 29 view .LVU2084
	addq	%rdi, %r14
	.loc 2 949 29 view .LVU2085
	movq	40(%rsp), %rdi
	imulq	%rdx, %rdi
	.loc 2 970 29 view .LVU2086
	movq	8(%rsp), %rdx
	imulq	16(%rsp), %rdx
	.loc 2 957 29 view .LVU2087
	addq	%r14, %rdi
	addq	%rdi, %r12
	.loc 2 957 35 view .LVU2088
	imulq	$15632, %rbx, %rdi
	.loc 2 970 8 view .LVU2089
	addq	%r9, %rdx
	.loc 2 971 29 view .LVU2090
	movq	40(%rsp), %r9
	.loc 2 980 29 view .LVU2091
	addq	%rbp, %rdx
	.loc 2 957 29 view .LVU2092
	addq	%rdi, %r12
	addq	%r13, %r12
.LVL444:
	.loc 2 958 5 is_stmt 1 view .LVU2093
	.loc 2 958 5 view .LVU2094
	.loc 2 958 5 view .LVU2095
	.loc 2 959 5 view .LVU2096
	.loc 2 959 5 view .LVU2097
	.loc 2 959 5 view .LVU2098
	.loc 2 961 5 view .LVU2099
	.loc 2 961 5 view .LVU2100
	.loc 2 963 5 view .LVU2101
	.loc 2 963 17 view .LVU2102
	.loc 2 963 19 is_stmt 0 view .LVU2103
	movq	%r12, %rdi
	shrq	$26, %rdi
.LVL445:
	.loc 2 963 27 is_stmt 1 view .LVU2104
	.loc 2 964 5 view .LVU2105
	.loc 2 964 5 view .LVU2106
	.loc 2 964 5 view .LVU2107
	.loc 2 965 5 view .LVU2108
	.loc 2 965 5 view .LVU2109
	.loc 2 965 5 view .LVU2110
	.loc 2 969 5 view .LVU2111
	.loc 2 975 5 view .LVU2112
	.loc 2 975 5 view .LVU2113
	.loc 2 977 5 view .LVU2114
	.loc 2 978 5 view .LVU2115
	.loc 2 978 5 view .LVU2116
	.loc 2 978 5 view .LVU2117
	.loc 2 980 5 view .LVU2118
	.loc 2 980 17 view .LVU2119
	.loc 2 980 27 view .LVU2120
	.loc 2 972 29 is_stmt 0 view .LVU2121
	imulq	32(%rsp), %rsi
	.loc 2 963 35 view .LVU2122
	salq	$10, %rbx
.LVL446:
	.loc 2 971 29 view .LVU2123
	imulq	24(%rsp), %r9
	.loc 2 980 29 view .LVU2124
	addq	%rsi, %rdx
	addq	%rdx, %r9
	.loc 2 980 35 view .LVU2125
	imulq	$15632, %r10, %rdx
	.loc 2 1003 37 view .LVU2126
	salq	$10, %r10
.LVL447:
	.loc 2 980 29 view .LVU2127
	addq	%rbx, %r9
	addq	%rdx, %r9
	addq	%rdi, %r9
.LVL448:
	.loc 2 981 5 is_stmt 1 view .LVU2128
	.loc 2 981 5 view .LVU2129
	.loc 2 981 5 view .LVU2130
	.loc 2 982 5 view .LVU2131
	.loc 2 982 5 view .LVU2132
	.loc 2 982 5 view .LVU2133
	.loc 2 984 5 view .LVU2134
	.loc 2 984 5 view .LVU2135
	.loc 2 987 5 view .LVU2136
	.loc 2 988 5 view .LVU2137
	.loc 2 988 5 view .LVU2138
	.loc 2 988 5 view .LVU2139
	.loc 2 990 5 view .LVU2140
	.loc 2 991 5 view .LVU2141
	.loc 2 991 5 view .LVU2142
	.loc 2 991 5 view .LVU2143
	.loc 2 993 5 view .LVU2144
	.loc 2 994 5 view .LVU2145
	.loc 2 994 5 view .LVU2146
	.loc 2 994 5 view .LVU2147
	.loc 2 996 5 view .LVU2148
	.loc 2 997 5 view .LVU2149
	.loc 2 997 5 view .LVU2150
	.loc 2 997 5 view .LVU2151
	.loc 2 999 5 view .LVU2152
	.loc 2 1000 5 view .LVU2153
	.loc 2 1000 5 view .LVU2154
	.loc 2 1000 5 view .LVU2155
	.loc 2 1003 5 view .LVU2156
	.loc 2 1003 14 is_stmt 0 view .LVU2157
	movl	%r9d, %esi
	.loc 2 1003 21 view .LVU2158
	shrq	$26, %r9
.LVL449:
	.loc 2 1003 14 view .LVU2159
	andl	$67108863, %esi
	movl	%esi, %edx
.LVL450:
	.loc 2 1003 14 view .LVU2160
	movq	192(%rsp), %rsi
	movl	%edx, 32(%rsi)
.LVL451:
	.loc 2 1003 19 is_stmt 1 view .LVU2161
	.loc 2 1003 29 view .LVU2162
	.loc 2 1004 5 view .LVU2163
	.loc 2 1004 5 view .LVU2164
	.loc 2 1004 5 view .LVU2165
	.loc 2 1005 5 view .LVU2166
	.loc 2 1005 5 view .LVU2167
	.loc 2 1005 5 view .LVU2168
	.loc 2 1008 5 view .LVU2169
	.loc 2 1008 14 is_stmt 0 view .LVU2170
	imulq	$15632, %rax, %rdx
	.loc 2 1011 43 view .LVU2171
	salq	$14, %rax
.LVL452:
	.loc 2 1008 9 view .LVU2172
	addq	%rdx, %r10
	.loc 2 1008 19 view .LVU2173
	movq	80(%rsp), %rdx
	andl	$67108862, %edx
	.loc 2 1008 9 view .LVU2174
	addq	%rdx, %r10
	addq	%r9, %r10
.LVL453:
	.loc 2 1009 5 is_stmt 1 view .LVU2175
	.loc 2 1009 5 view .LVU2176
	.loc 2 1009 5 view .LVU2177
	.loc 2 1011 5 view .LVU2178
	.loc 2 1018 26 is_stmt 0 view .LVU2179
	movq	88(%rsp), %r9
	.loc 2 1011 14 view .LVU2180
	movl	%r10d, %esi
	.loc 2 1011 28 view .LVU2181
	shrq	$22, %r10
.LVL454:
	.loc 2 1011 14 view .LVU2182
	andl	$4194303, %esi
	.loc 2 1011 38 view .LVU2183
	addq	%r10, %rax
	.loc 2 1018 26 view .LVU2184
	andl	$67108863, %r9d
	.loc 2 1011 14 view .LVU2185
	movl	%esi, %edx
	movq	192(%rsp), %rsi
	movl	%edx, 36(%rsi)
	.loc 2 1011 26 is_stmt 1 view .LVU2186
.LVL455:
	.loc 2 1011 36 view .LVU2187
	.loc 2 1012 5 view .LVU2188
	.loc 2 1012 5 view .LVU2189
	.loc 2 1012 5 view .LVU2190
	.loc 2 1013 5 view .LVU2191
	.loc 2 1013 5 view .LVU2192
	.loc 2 1013 5 view .LVU2193
	.loc 2 1018 5 view .LVU2194
	.loc 2 1019 5 view .LVU2195
	.loc 2 1019 5 view .LVU2196
	.loc 2 1019 5 view .LVU2197
	.loc 2 1021 5 view .LVU2198
	.loc 2 1021 19 view .LVU2199
	.loc 2 1018 14 is_stmt 0 view .LVU2200
	imulq	$977, %rax, %rdx
	.loc 2 1025 14 view .LVU2201
	salq	$6, %rax
.LVL456:
	.loc 2 1021 21 view .LVU2202
	leaq	(%rdx,%r9), %r10
	.loc 2 1021 14 view .LVU2203
	leal	(%rdx,%r9), %esi
	.loc 2 1025 26 view .LVU2204
	movq	96(%rsp), %r9
	.loc 2 1035 9 view .LVU2205
	movq	104(%rsp), %rdx
	.loc 2 1021 21 view .LVU2206
	shrq	$26, %r10
.LVL457:
	.loc 2 1022 5 is_stmt 1 view .LVU2207
	.loc 2 1022 5 view .LVU2208
	.loc 2 1022 5 view .LVU2209
	.loc 2 1023 5 view .LVU2210
	.loc 2 1023 5 view .LVU2211
	.loc 2 1023 5 view .LVU2212
	.loc 2 1025 5 view .LVU2213
	.loc 2 1021 14 is_stmt 0 view .LVU2214
	andl	$67108863, %esi
	.loc 2 1025 26 view .LVU2215
	andl	$67108863, %r9d
	.loc 2 1035 9 view .LVU2216
	andl	$67108863, %edx
	.loc 2 1021 14 view .LVU2217
	movd	%esi, %xmm0
	.loc 2 1025 26 view .LVU2218
	addq	%r9, %rax
	.loc 2 1025 9 view .LVU2219
	addq	%r10, %rax
.LVL458:
	.loc 2 1026 5 is_stmt 1 view .LVU2220
	.loc 2 1026 5 view .LVU2221
	.loc 2 1026 5 view .LVU2222
	.loc 2 1027 5 view .LVU2223
	.loc 2 1027 5 view .LVU2224
	.loc 2 1030 5 view .LVU2225
	.loc 2 1030 19 view .LVU2226
	.loc 2 1030 21 is_stmt 0 view .LVU2227
	movq	%rax, %r9
	.loc 2 1030 14 view .LVU2228
	andl	$67108863, %eax
.LVL459:
	.loc 2 1030 21 view .LVU2229
	shrq	$26, %r9
.LVL460:
	.loc 2 1031 5 is_stmt 1 view .LVU2230
	.loc 2 1031 5 view .LVU2231
	.loc 2 1031 5 view .LVU2232
	.loc 2 1032 5 view .LVU2233
	.loc 2 1032 5 view .LVU2234
	.loc 2 1032 5 view .LVU2235
	.loc 2 1033 5 view .LVU2236
	.loc 2 1033 5 view .LVU2237
	.loc 2 1035 5 view .LVU2238
	.loc 2 1036 5 view .LVU2239
	.loc 2 1036 5 view .LVU2240
	.loc 2 1036 5 view .LVU2241
	.loc 2 1038 5 view .LVU2242
	.loc 2 1021 10 is_stmt 0 view .LVU2243
	movd	%eax, %xmm3
	movq	192(%rsp), %rax
	.loc 2 1035 9 view .LVU2244
	leaq	(%rdx,%r9), %rsi
	.loc 2 879 8 view .LVU2245
	movl	64(%rsp), %edx
	.loc 2 1021 10 view .LVU2246
	punpckldq	%xmm3, %xmm0
	.loc 2 1035 9 view .LVU2247
	movq	%rsi, %xmm1
	.loc 2 879 8 view .LVU2248
	andl	$67108863, %edx
	.loc 2 920 8 view .LVU2249
	andl	$67108863, %ecx
.LVL461:
	.loc 2 941 8 view .LVU2250
	andl	$67108863, %r8d
.LVL462:
	.loc 2 963 8 view .LVU2251
	andl	$67108863, %r12d
.LVL463:
	.loc 2 1021 10 view .LVU2252
	movd	%edx, %xmm2
	movd	%r12d, %xmm4
	movd	%ecx, %xmm5
	punpckldq	%xmm2, %xmm1
	punpcklqdq	%xmm1, %xmm0
	movd	%r8d, %xmm1
	movups	%xmm0, (%rax)
	.loc 2 900 8 view .LVU2253
	movl	%r15d, %eax
	.loc 2 1021 10 view .LVU2254
	punpckldq	%xmm4, %xmm1
	.loc 2 900 8 view .LVU2255
	andl	$67108863, %eax
.LVL464:
	.loc 2 900 8 view .LVU2256
	movd	%eax, %xmm0
	.loc 2 1021 10 view .LVU2257
	movq	192(%rsp), %rax
.LVL465:
	.loc 2 1021 10 view .LVU2258
	punpckldq	%xmm5, %xmm0
.LVL466:
	.loc 2 1021 10 view .LVU2259
	punpcklqdq	%xmm1, %xmm0
	movups	%xmm0, 16(%rax)
	.loc 2 1039 5 is_stmt 1 view .LVU2260
	.loc 2 1039 5 view .LVU2261
	.loc 2 1039 5 view .LVU2262
	.loc 2 1041 1 is_stmt 0 view .LVU2263
	addq	$120, %rsp
.LCFI100:
	.cfi_def_cfa_offset 72
	popq	%rbx
.LCFI101:
	.cfi_restore 3
	.cfi_def_cfa_offset 64
	popq	%rsi
.LCFI102:
	.cfi_restore 4
	.cfi_def_cfa_offset 56
	popq	%rdi
.LCFI103:
	.cfi_restore 5
	.cfi_def_cfa_offset 48
	popq	%rbp
.LCFI104:
	.cfi_restore 6
	.cfi_def_cfa_offset 40
	popq	%r12
.LCFI105:
	.cfi_restore 12
	.cfi_def_cfa_offset 32
.LVL467:
	.loc 2 1041 1 view .LVU2264
	popq	%r13
.LCFI106:
	.cfi_restore 13
	.cfi_def_cfa_offset 24
	popq	%r14
.LCFI107:
	.cfi_restore 14
	.cfi_def_cfa_offset 16
	popq	%r15
.LCFI108:
	.cfi_restore 15
	.cfi_def_cfa_offset 8
.LVL468:
	.loc 2 1041 1 view .LVU2265
	ret
	.cfi_endproc
.LFE133:
	.seh_endproc
	.p2align 4
	.def	secp256k1_fe_inv;	.scl	3;	.type	32;	.endef
	.seh_proc	secp256k1_fe_inv
secp256k1_fe_inv:
.LVL469:
.LFB143:
	.file 3 "././libsecp256k1/src/field_impl.h"
	.loc 3 136 70 is_stmt 1 view -0
	.cfi_startproc
	.loc 3 136 70 is_stmt 0 view .LVU2267
	pushq	%r15
	.seh_pushreg	%r15
.LCFI109:
	.cfi_def_cfa_offset 16
	.cfi_offset 15, -16
	pushq	%r14
	.seh_pushreg	%r14
.LCFI110:
	.cfi_def_cfa_offset 24
	.cfi_offset 14, -24
	pushq	%r13
	.seh_pushreg	%r13
.LCFI111:
	.cfi_def_cfa_offset 32
	.cfi_offset 13, -32
	pushq	%r12
	.seh_pushreg	%r12
.LCFI112:
	.cfi_def_cfa_offset 40
	.cfi_offset 12, -40
	pushq	%rbp
	.seh_pushreg	%rbp
.LCFI113:
	.cfi_def_cfa_offset 48
	.cfi_offset 6, -48
	pushq	%rdi
	.seh_pushreg	%rdi
.LCFI114:
	.cfi_def_cfa_offset 56
	.cfi_offset 5, -56
	pushq	%rsi
	.seh_pushreg	%rsi
.LCFI115:
	.cfi_def_cfa_offset 64
	.cfi_offset 4, -64
	pushq	%rbx
	.seh_pushreg	%rbx
.LCFI116:
	.cfi_def_cfa_offset 72
	.cfi_offset 3, -72
	subq	$616, %rsp
	.seh_stackalloc	616
.LCFI117:
	.cfi_def_cfa_offset 688
	.seh_endprologue
	.loc 3 151 8 view .LVU2268
	movl	$3, %ebx
	.loc 3 136 70 view .LVU2269
	movq	%rdx, %r12
	movq	%rcx, 688(%rsp)
	.loc 3 137 5 is_stmt 1 view .LVU2270
	.loc 3 138 5 view .LVU2271
	.loc 3 145 5 view .LVU2272
.LVL470:
.LBB701:
.LBI701:
	.loc 2 1060 13 view .LVU2273
.LBB702:
	.loc 2 1065 5 view .LVU2274
	leaq	32(%rsp), %rcx
.LVL471:
	.loc 2 1065 5 is_stmt 0 view .LVU2275
	call	secp256k1_fe_sqr_inner
.LVL472:
	.loc 2 1065 5 view .LVU2276
.LBE702:
.LBE701:
	.loc 3 146 5 is_stmt 1 view .LVU2277
.LBB703:
.LBI703:
	.loc 2 1044 13 view .LVU2278
.LBB704:
	.loc 2 1052 5 view .LVU2279
	movq	%r12, %r8
	leaq	32(%rsp), %rdx
.LVL473:
	.loc 2 1052 5 is_stmt 0 view .LVU2280
	leaq	32(%rsp), %rcx
	call	secp256k1_fe_mul_inner
.LVL474:
	.loc 2 1052 5 view .LVU2281
.LBE704:
.LBE703:
	.loc 3 148 5 is_stmt 1 view .LVU2282
.LBB705:
.LBI705:
	.loc 2 1060 13 view .LVU2283
.LBB706:
	.loc 2 1065 5 view .LVU2284
	leaq	32(%rsp), %rdx
.LVL475:
	.loc 2 1065 5 is_stmt 0 view .LVU2285
	leaq	80(%rsp), %rcx
.LVL476:
	.loc 2 1065 5 view .LVU2286
	call	secp256k1_fe_sqr_inner
.LVL477:
	.loc 2 1065 5 view .LVU2287
.LBE706:
.LBE705:
	.loc 3 149 5 is_stmt 1 view .LVU2288
.LBB707:
.LBI707:
	.loc 2 1044 13 view .LVU2289
.LBB708:
	.loc 2 1052 5 view .LVU2290
	movq	%r12, %r8
	leaq	80(%rsp), %rdx
.LVL478:
	.loc 2 1052 5 is_stmt 0 view .LVU2291
	leaq	80(%rsp), %rcx
	call	secp256k1_fe_mul_inner
.LVL479:
	.loc 2 1052 5 view .LVU2292
.LBE708:
.LBE707:
	.loc 3 151 5 is_stmt 1 view .LVU2293
	.loc 3 151 8 is_stmt 0 view .LVU2294
	movq	112(%rsp), %rax
	movdqu	80(%rsp), %xmm0
	movdqu	96(%rsp), %xmm1
	movq	%rax, 160(%rsp)
	.loc 3 152 5 is_stmt 1 view .LVU2295
.LVL480:
	.loc 3 152 16 discriminator 1 view .LVU2296
	.loc 3 151 8 is_stmt 0 view .LVU2297
	movups	%xmm0, 128(%rsp)
	movups	%xmm1, 144(%rsp)
.LVL481:
.L35:
	.loc 3 153 9 is_stmt 1 view .LVU2298
.LBB709:
.LBI709:
	.loc 2 1060 13 view .LVU2299
.LBB710:
	.loc 2 1065 5 view .LVU2300
	leaq	128(%rsp), %rdx
.LVL482:
	.loc 2 1065 5 is_stmt 0 view .LVU2301
	leaq	128(%rsp), %rcx
	call	secp256k1_fe_sqr_inner
.LVL483:
	.loc 2 1065 5 view .LVU2302
.LBE710:
.LBE709:
	.loc 3 152 21 is_stmt 1 discriminator 3 view .LVU2303
	.loc 3 152 16 discriminator 1 view .LVU2304
	subl	$1, %ebx
	jne	.L35
	.loc 3 155 5 view .LVU2305
.LVL484:
.LBB711:
.LBI711:
	.loc 2 1044 13 view .LVU2306
.LBB712:
	.loc 2 1052 5 view .LVU2307
	leaq	80(%rsp), %r8
.LVL485:
	.loc 2 1052 5 is_stmt 0 view .LVU2308
	leaq	128(%rsp), %rdx
.LVL486:
	.loc 2 1052 5 view .LVU2309
.LBE712:
.LBE711:
	.loc 3 157 8 view .LVU2310
	movl	$3, %ebx
.LBB714:
.LBB713:
	.loc 2 1052 5 view .LVU2311
	leaq	128(%rsp), %rcx
	call	secp256k1_fe_mul_inner
.LVL487:
	.loc 2 1052 5 view .LVU2312
.LBE713:
.LBE714:
	.loc 3 157 5 is_stmt 1 view .LVU2313
	.loc 3 157 8 is_stmt 0 view .LVU2314
	movq	160(%rsp), %rax
	movdqu	128(%rsp), %xmm2
	movdqu	144(%rsp), %xmm3
	movq	%rax, 208(%rsp)
	.loc 3 158 5 is_stmt 1 view .LVU2315
.LVL488:
	.loc 3 158 16 discriminator 1 view .LVU2316
	.loc 3 157 8 is_stmt 0 view .LVU2317
	movups	%xmm2, 176(%rsp)
	movups	%xmm3, 192(%rsp)
.LVL489:
.L36:
	.loc 3 159 9 is_stmt 1 view .LVU2318
.LBB715:
.LBI715:
	.loc 2 1060 13 view .LVU2319
.LBB716:
	.loc 2 1065 5 view .LVU2320
	leaq	176(%rsp), %rdx
.LVL490:
	.loc 2 1065 5 is_stmt 0 view .LVU2321
	leaq	176(%rsp), %rcx
	call	secp256k1_fe_sqr_inner
.LVL491:
	.loc 2 1065 5 view .LVU2322
.LBE716:
.LBE715:
	.loc 3 158 21 is_stmt 1 discriminator 3 view .LVU2323
	.loc 3 158 16 discriminator 1 view .LVU2324
	subl	$1, %ebx
	jne	.L36
	.loc 3 161 5 view .LVU2325
.LVL492:
.LBB717:
.LBI717:
	.loc 2 1044 13 view .LVU2326
.LBB718:
	.loc 2 1052 5 view .LVU2327
	leaq	80(%rsp), %r8
.LVL493:
	.loc 2 1052 5 is_stmt 0 view .LVU2328
	leaq	176(%rsp), %rdx
.LVL494:
	.loc 2 1052 5 view .LVU2329
.LBE718:
.LBE717:
	.loc 3 169 9 view .LVU2330
	movl	$11, %ebx
.LBB720:
.LBB719:
	.loc 2 1052 5 view .LVU2331
	leaq	176(%rsp), %rcx
	leaq	272(%rsp), %rbp
	call	secp256k1_fe_mul_inner
.LVL495:
	.loc 2 1052 5 view .LVU2332
.LBE719:
.LBE720:
	.loc 3 163 5 is_stmt 1 view .LVU2333
	.loc 3 163 9 is_stmt 0 view .LVU2334
	movq	208(%rsp), %rax
	movdqu	176(%rsp), %xmm4
.LBB721:
.LBB722:
	.loc 2 1065 5 view .LVU2335
	leaq	224(%rsp), %rdx
.LBE722:
.LBE721:
	.loc 3 163 9 view .LVU2336
	movdqu	192(%rsp), %xmm5
.LBB727:
.LBB723:
	.loc 2 1065 5 view .LVU2337
	leaq	224(%rsp), %rcx
.LBE723:
.LBE727:
	.loc 3 163 9 view .LVU2338
	movq	%rax, 256(%rsp)
	.loc 3 164 5 is_stmt 1 view .LVU2339
.LVL496:
	.loc 3 164 16 discriminator 1 view .LVU2340
	.loc 3 165 9 view .LVU2341
.LBB728:
.LBI721:
	.loc 2 1060 13 view .LVU2342
.LBB724:
	.loc 2 1065 5 view .LVU2343
.LBE724:
.LBE728:
	.loc 3 163 9 is_stmt 0 view .LVU2344
	movups	%xmm4, 224(%rsp)
	movups	%xmm5, 240(%rsp)
.LBB729:
.LBB725:
	.loc 2 1065 5 view .LVU2345
	call	secp256k1_fe_sqr_inner
.LVL497:
	.loc 2 1065 5 view .LVU2346
.LBE725:
.LBE729:
	.loc 3 164 21 is_stmt 1 discriminator 3 view .LVU2347
	.loc 3 164 16 discriminator 1 view .LVU2348
	.loc 3 165 9 view .LVU2349
.LBB730:
	.loc 2 1060 13 view .LVU2350
.LBB726:
	.loc 2 1065 5 view .LVU2351
	leaq	224(%rsp), %rdx
.LVL498:
	.loc 2 1065 5 is_stmt 0 view .LVU2352
	leaq	224(%rsp), %rcx
	call	secp256k1_fe_sqr_inner
.LVL499:
	.loc 2 1065 5 view .LVU2353
.LBE726:
.LBE730:
	.loc 3 164 21 is_stmt 1 discriminator 3 view .LVU2354
	.loc 3 164 16 discriminator 1 view .LVU2355
	.loc 3 167 5 view .LVU2356
.LBB731:
.LBI731:
	.loc 2 1044 13 view .LVU2357
.LBB732:
	.loc 2 1052 5 view .LVU2358
	leaq	32(%rsp), %r8
.LVL500:
	.loc 2 1052 5 is_stmt 0 view .LVU2359
	leaq	224(%rsp), %rdx
.LVL501:
	.loc 2 1052 5 view .LVU2360
	leaq	224(%rsp), %rcx
	call	secp256k1_fe_mul_inner
.LVL502:
	.loc 2 1052 5 view .LVU2361
.LBE732:
.LBE731:
	.loc 3 169 5 is_stmt 1 view .LVU2362
	.loc 3 169 9 is_stmt 0 view .LVU2363
	movq	256(%rsp), %rax
	movdqu	224(%rsp), %xmm0
	movdqu	240(%rsp), %xmm1
	movq	%rax, 304(%rsp)
	.loc 3 170 5 is_stmt 1 view .LVU2364
.LVL503:
	.loc 3 170 16 discriminator 1 view .LVU2365
	.loc 3 169 9 is_stmt 0 view .LVU2366
	movups	%xmm0, 272(%rsp)
	movups	%xmm1, 288(%rsp)
.LVL504:
	.p2align 4
	.p2align 3
.L37:
	.loc 3 171 9 is_stmt 1 view .LVU2367
.LBB733:
.LBI733:
	.loc 2 1060 13 view .LVU2368
.LBB734:
	.loc 2 1065 5 view .LVU2369
	movq	%rbp, %rdx
	movq	%rbp, %rcx
	call	secp256k1_fe_sqr_inner
.LVL505:
	.loc 2 1065 5 is_stmt 0 view .LVU2370
.LBE734:
.LBE733:
	.loc 3 170 22 is_stmt 1 discriminator 3 view .LVU2371
	.loc 3 170 16 discriminator 1 view .LVU2372
	subl	$1, %ebx
	jne	.L37
	.loc 3 173 5 view .LVU2373
.LVL506:
.LBB735:
.LBI735:
	.loc 2 1044 13 view .LVU2374
.LBB736:
	.loc 2 1052 5 view .LVU2375
	leaq	224(%rsp), %r8
.LVL507:
	.loc 2 1052 5 is_stmt 0 view .LVU2376
	movq	%rbp, %rdx
	movq	%rbp, %rcx
.LBE736:
.LBE735:
	.loc 3 175 9 view .LVU2377
	movl	$22, %ebx
.LBB738:
.LBB737:
	.loc 2 1052 5 view .LVU2378
	call	secp256k1_fe_mul_inner
.LVL508:
	.loc 2 1052 5 view .LVU2379
.LBE737:
.LBE738:
	.loc 3 175 5 is_stmt 1 view .LVU2380
	.loc 3 175 9 is_stmt 0 view .LVU2381
	movq	304(%rsp), %rax
	movdqu	272(%rsp), %xmm2
	movdqu	288(%rsp), %xmm3
	movq	%rax, 352(%rsp)
	.loc 3 176 5 is_stmt 1 view .LVU2382
.LVL509:
	.loc 3 176 16 discriminator 1 view .LVU2383
	.loc 3 175 9 is_stmt 0 view .LVU2384
	movups	%xmm2, 320(%rsp)
	movups	%xmm3, 336(%rsp)
.LVL510:
	.p2align 4
	.p2align 3
.L38:
	.loc 3 177 9 is_stmt 1 view .LVU2385
.LBB739:
.LBI739:
	.loc 2 1060 13 view .LVU2386
.LBB740:
	.loc 2 1065 5 view .LVU2387
	leaq	320(%rsp), %rdx
.LVL511:
	.loc 2 1065 5 is_stmt 0 view .LVU2388
	leaq	320(%rsp), %rcx
	call	secp256k1_fe_sqr_inner
.LVL512:
	.loc 2 1065 5 view .LVU2389
.LBE740:
.LBE739:
	.loc 3 176 22 is_stmt 1 discriminator 3 view .LVU2390
	.loc 3 176 16 discriminator 1 view .LVU2391
	subl	$1, %ebx
	jne	.L38
	.loc 3 179 5 view .LVU2392
.LVL513:
.LBB741:
.LBI741:
	.loc 2 1044 13 view .LVU2393
.LBB742:
	.loc 2 1052 5 view .LVU2394
	movq	%rbp, %r8
	leaq	320(%rsp), %rdx
.LVL514:
	.loc 2 1052 5 is_stmt 0 view .LVU2395
	leaq	320(%rsp), %rcx
.LBE742:
.LBE741:
	.loc 3 181 9 view .LVU2396
	movl	$44, %ebx
.LBB744:
.LBB743:
	.loc 2 1052 5 view .LVU2397
	call	secp256k1_fe_mul_inner
.LVL515:
	.loc 2 1052 5 view .LVU2398
.LBE743:
.LBE744:
	.loc 3 181 5 is_stmt 1 view .LVU2399
	.loc 3 181 9 is_stmt 0 view .LVU2400
	movq	352(%rsp), %rax
	movdqu	320(%rsp), %xmm4
	leaq	368(%rsp), %rsi
	movdqu	336(%rsp), %xmm5
	movq	%rax, 400(%rsp)
	.loc 3 182 5 is_stmt 1 view .LVU2401
.LVL516:
	.loc 3 182 16 discriminator 1 view .LVU2402
	.loc 3 181 9 is_stmt 0 view .LVU2403
	movups	%xmm4, 368(%rsp)
	movups	%xmm5, 384(%rsp)
.LVL517:
	.p2align 4
	.p2align 3
.L39:
	.loc 3 183 9 is_stmt 1 view .LVU2404
.LBB745:
.LBI745:
	.loc 2 1060 13 view .LVU2405
.LBB746:
	.loc 2 1065 5 view .LVU2406
	movq	%rsi, %rdx
	movq	%rsi, %rcx
	call	secp256k1_fe_sqr_inner
.LVL518:
	.loc 2 1065 5 is_stmt 0 view .LVU2407
.LBE746:
.LBE745:
	.loc 3 182 22 is_stmt 1 discriminator 3 view .LVU2408
	.loc 3 182 16 discriminator 1 view .LVU2409
	subl	$1, %ebx
	jne	.L39
	.loc 3 185 5 view .LVU2410
.LVL519:
.LBB747:
.LBI747:
	.loc 2 1044 13 view .LVU2411
.LBB748:
	.loc 2 1052 5 view .LVU2412
	leaq	320(%rsp), %r8
.LVL520:
	.loc 2 1052 5 is_stmt 0 view .LVU2413
	movq	%rsi, %rdx
	movq	%rsi, %rcx
.LBE748:
.LBE747:
	.loc 3 187 10 view .LVU2414
	movl	$88, %ebx
.LBB750:
.LBB749:
	.loc 2 1052 5 view .LVU2415
	call	secp256k1_fe_mul_inner
.LVL521:
	.loc 2 1052 5 view .LVU2416
.LBE749:
.LBE750:
	.loc 3 187 5 is_stmt 1 view .LVU2417
	.loc 3 187 10 is_stmt 0 view .LVU2418
	movq	400(%rsp), %rax
	movdqu	368(%rsp), %xmm0
	movdqu	384(%rsp), %xmm1
	movq	%rax, 448(%rsp)
	.loc 3 188 5 is_stmt 1 view .LVU2419
.LVL522:
	.loc 3 188 16 discriminator 1 view .LVU2420
	.loc 3 187 10 is_stmt 0 view .LVU2421
	movups	%xmm0, 416(%rsp)
	movups	%xmm1, 432(%rsp)
.LVL523:
	.p2align 4
	.p2align 3
.L40:
	.loc 3 189 9 is_stmt 1 view .LVU2422
.LBB751:
.LBI751:
	.loc 2 1060 13 view .LVU2423
.LBB752:
	.loc 2 1065 5 view .LVU2424
	leaq	416(%rsp), %rdx
.LVL524:
	.loc 2 1065 5 is_stmt 0 view .LVU2425
	leaq	416(%rsp), %rcx
	call	secp256k1_fe_sqr_inner
.LVL525:
	.loc 2 1065 5 view .LVU2426
.LBE752:
.LBE751:
	.loc 3 188 22 is_stmt 1 discriminator 3 view .LVU2427
	.loc 3 188 16 discriminator 1 view .LVU2428
	subl	$1, %ebx
	jne	.L40
	.loc 3 191 5 view .LVU2429
.LVL526:
.LBB753:
.LBI753:
	.loc 2 1044 13 view .LVU2430
.LBB754:
	.loc 2 1052 5 view .LVU2431
	movq	%rsi, %r8
	leaq	416(%rsp), %rdx
.LVL527:
	.loc 2 1052 5 is_stmt 0 view .LVU2432
.LBE754:
.LBE753:
	.loc 3 193 10 view .LVU2433
	movl	$44, %ebx
.LBB756:
.LBB755:
	.loc 2 1052 5 view .LVU2434
	leaq	416(%rsp), %rcx
	call	secp256k1_fe_mul_inner
.LVL528:
	.loc 2 1052 5 view .LVU2435
.LBE755:
.LBE756:
	.loc 3 193 5 is_stmt 1 view .LVU2436
	.loc 3 193 10 is_stmt 0 view .LVU2437
	movq	448(%rsp), %rax
	movdqu	416(%rsp), %xmm2
	movdqu	432(%rsp), %xmm3
	movq	%rax, 496(%rsp)
	.loc 3 194 5 is_stmt 1 view .LVU2438
.LVL529:
	.loc 3 194 16 discriminator 1 view .LVU2439
	.loc 3 193 10 is_stmt 0 view .LVU2440
	movups	%xmm2, 464(%rsp)
	movups	%xmm3, 480(%rsp)
.LVL530:
	.p2align 4
	.p2align 3
.L41:
	.loc 3 195 9 is_stmt 1 view .LVU2441
.LBB757:
.LBI757:
	.loc 2 1060 13 view .LVU2442
.LBB758:
	.loc 2 1065 5 view .LVU2443
	leaq	464(%rsp), %rdx
.LVL531:
	.loc 2 1065 5 is_stmt 0 view .LVU2444
	leaq	464(%rsp), %rcx
	call	secp256k1_fe_sqr_inner
.LVL532:
	.loc 2 1065 5 view .LVU2445
.LBE758:
.LBE757:
	.loc 3 194 22 is_stmt 1 discriminator 3 view .LVU2446
	.loc 3 194 16 discriminator 1 view .LVU2447
	subl	$1, %ebx
	jne	.L41
	.loc 3 197 5 view .LVU2448
.LVL533:
.LBB759:
.LBI759:
	.loc 2 1044 13 view .LVU2449
.LBB760:
	.loc 2 1052 5 view .LVU2450
	leaq	320(%rsp), %r8
.LVL534:
	.loc 2 1052 5 is_stmt 0 view .LVU2451
	leaq	464(%rsp), %rdx
.LVL535:
	.loc 2 1052 5 view .LVU2452
.LBE760:
.LBE759:
	.loc 3 199 10 view .LVU2453
	movl	$3, %ebx
.LBB762:
.LBB761:
	.loc 2 1052 5 view .LVU2454
	leaq	464(%rsp), %rcx
	call	secp256k1_fe_mul_inner
.LVL536:
	.loc 2 1052 5 view .LVU2455
.LBE761:
.LBE762:
	.loc 3 199 5 is_stmt 1 view .LVU2456
	.loc 3 199 10 is_stmt 0 view .LVU2457
	movq	496(%rsp), %rax
	movdqu	464(%rsp), %xmm4
	movdqu	480(%rsp), %xmm5
	movq	%rax, 544(%rsp)
	.loc 3 200 5 is_stmt 1 view .LVU2458
.LVL537:
	.loc 3 200 16 discriminator 1 view .LVU2459
	.loc 3 199 10 is_stmt 0 view .LVU2460
	movups	%xmm4, 512(%rsp)
	movups	%xmm5, 528(%rsp)
.LVL538:
.L42:
	.loc 3 201 9 is_stmt 1 view .LVU2461
.LBB763:
.LBI763:
	.loc 2 1060 13 view .LVU2462
.LBB764:
	.loc 2 1065 5 view .LVU2463
	leaq	512(%rsp), %rdx
.LVL539:
	.loc 2 1065 5 is_stmt 0 view .LVU2464
	leaq	512(%rsp), %rcx
	call	secp256k1_fe_sqr_inner
.LVL540:
	.loc 2 1065 5 view .LVU2465
.LBE764:
.LBE763:
	.loc 3 200 21 is_stmt 1 discriminator 3 view .LVU2466
	.loc 3 200 16 discriminator 1 view .LVU2467
	subl	$1, %ebx
	jne	.L42
	.loc 3 203 5 view .LVU2468
.LVL541:
.LBB765:
.LBI765:
	.loc 2 1044 13 view .LVU2469
.LBB766:
	.loc 2 1052 5 view .LVU2470
	leaq	80(%rsp), %r8
.LVL542:
	.loc 2 1052 5 is_stmt 0 view .LVU2471
	leaq	512(%rsp), %rdx
.LVL543:
	.loc 2 1052 5 view .LVU2472
.LBE766:
.LBE765:
	.loc 3 207 8 view .LVU2473
	movl	$23, %esi
.LBB768:
.LBB767:
	.loc 2 1052 5 view .LVU2474
	leaq	512(%rsp), %rcx
	leaq	560(%rsp), %rbx
	call	secp256k1_fe_mul_inner
.LVL544:
	.loc 2 1052 5 view .LVU2475
.LBE767:
.LBE768:
	.loc 3 207 5 is_stmt 1 view .LVU2476
	.loc 3 207 8 is_stmt 0 view .LVU2477
	movq	544(%rsp), %rax
	movdqu	512(%rsp), %xmm0
	movdqu	528(%rsp), %xmm1
	movq	%rax, 592(%rsp)
	.loc 3 208 5 is_stmt 1 view .LVU2478
.LVL545:
	.loc 3 208 16 discriminator 1 view .LVU2479
	.loc 3 207 8 is_stmt 0 view .LVU2480
	movups	%xmm0, 560(%rsp)
	movups	%xmm1, 576(%rsp)
.LVL546:
	.p2align 4
	.p2align 3
.L43:
	.loc 3 209 9 is_stmt 1 view .LVU2481
.LBB769:
.LBI769:
	.loc 2 1060 13 view .LVU2482
.LBB770:
	.loc 2 1065 5 view .LVU2483
	movq	%rbx, %rdx
	movq	%rbx, %rcx
	call	secp256k1_fe_sqr_inner
.LVL547:
	.loc 2 1065 5 is_stmt 0 view .LVU2484
.LBE770:
.LBE769:
	.loc 3 208 22 is_stmt 1 discriminator 3 view .LVU2485
	.loc 3 208 16 discriminator 1 view .LVU2486
	subl	$1, %esi
	jne	.L43
	.loc 3 211 5 view .LVU2487
.LVL548:
.LBB771:
.LBI771:
	.loc 2 1044 13 view .LVU2488
.LBB772:
	.loc 2 1052 5 view .LVU2489
	movq	%rbp, %r8
	movq	%rbx, %rdx
	movq	%rbx, %rcx
	movl	$5, %esi
	call	secp256k1_fe_mul_inner
.LVL549:
	.loc 2 1052 5 is_stmt 0 view .LVU2490
.LBE772:
.LBE771:
	.loc 3 212 5 is_stmt 1 view .LVU2491
	.loc 3 212 16 discriminator 1 view .LVU2492
.L44:
	.loc 3 213 9 view .LVU2493
.LBB773:
.LBI773:
	.loc 2 1060 13 view .LVU2494
.LBB774:
	.loc 2 1065 5 view .LVU2495
	movq	%rbx, %rdx
	movq	%rbx, %rcx
	call	secp256k1_fe_sqr_inner
.LVL550:
	.loc 2 1065 5 is_stmt 0 view .LVU2496
.LBE774:
.LBE773:
	.loc 3 212 21 is_stmt 1 discriminator 3 view .LVU2497
	.loc 3 212 16 discriminator 1 view .LVU2498
	subl	$1, %esi
	jne	.L44
	.loc 3 215 5 view .LVU2499
.LVL551:
.LBB775:
.LBI775:
	.loc 2 1044 13 view .LVU2500
.LBB776:
	.loc 2 1052 5 view .LVU2501
	movq	%r12, %r8
	movq	%rbx, %rdx
	movq	%rbx, %rcx
	movl	$3, %esi
	call	secp256k1_fe_mul_inner
.LVL552:
	.loc 2 1052 5 is_stmt 0 view .LVU2502
.LBE776:
.LBE775:
	.loc 3 216 5 is_stmt 1 view .LVU2503
	.loc 3 216 16 discriminator 1 view .LVU2504
.L45:
	.loc 3 217 9 view .LVU2505
.LBB777:
.LBI777:
	.loc 2 1060 13 view .LVU2506
.LBB778:
	.loc 2 1065 5 view .LVU2507
	movq	%rbx, %rdx
	movq	%rbx, %rcx
	call	secp256k1_fe_sqr_inner
.LVL553:
	.loc 2 1065 5 is_stmt 0 view .LVU2508
.LBE778:
.LBE777:
	.loc 3 216 21 is_stmt 1 discriminator 3 view .LVU2509
	.loc 3 216 16 discriminator 1 view .LVU2510
	subl	$1, %esi
	jne	.L45
	.loc 3 219 5 view .LVU2511
.LVL554:
.LBB779:
.LBI779:
	.loc 2 1044 13 view .LVU2512
.LBB780:
	.loc 2 1052 5 view .LVU2513
	leaq	32(%rsp), %r8
.LVL555:
	.loc 2 1052 5 is_stmt 0 view .LVU2514
	movq	%rbx, %rdx
	movq	%rbx, %rcx
	call	secp256k1_fe_mul_inner
.LVL556:
	.loc 2 1052 5 view .LVU2515
.LBE780:
.LBE779:
	.loc 3 220 5 is_stmt 1 view .LVU2516
	.loc 3 220 16 discriminator 1 view .LVU2517
	.loc 3 221 9 view .LVU2518
.LBB781:
.LBI781:
	.loc 2 1060 13 view .LVU2519
.LBB782:
	.loc 2 1065 5 view .LVU2520
	movq	%rbx, %rdx
	movq	%rbx, %rcx
	call	secp256k1_fe_sqr_inner
.LVL557:
.LBE782:
.LBE781:
	.loc 3 220 21 discriminator 3 view .LVU2521
	.loc 3 220 16 discriminator 1 view .LVU2522
	.loc 3 221 9 view .LVU2523
.LBB784:
	.loc 2 1060 13 view .LVU2524
.LBB783:
	.loc 2 1065 5 view .LVU2525
	movq	%rbx, %rdx
	movq	%rbx, %rcx
	call	secp256k1_fe_sqr_inner
.LVL558:
	.loc 2 1065 5 is_stmt 0 view .LVU2526
.LBE783:
.LBE784:
	.loc 3 220 21 is_stmt 1 discriminator 3 view .LVU2527
	.loc 3 220 16 discriminator 1 view .LVU2528
	.loc 3 223 5 view .LVU2529
.LBB785:
.LBI785:
	.loc 2 1044 13 view .LVU2530
.LBB786:
	.loc 2 1052 5 view .LVU2531
	movq	688(%rsp), %rcx
	movq	%rbx, %r8
	movq	%r12, %rdx
	call	secp256k1_fe_mul_inner
	nop
.LVL559:
	.loc 2 1052 5 is_stmt 0 view .LVU2532
.LBE786:
.LBE785:
	.loc 3 224 1 view .LVU2533
	addq	$616, %rsp
.LCFI118:
	.cfi_def_cfa_offset 72
	popq	%rbx
.LCFI119:
	.cfi_restore 3
	.cfi_def_cfa_offset 64
	popq	%rsi
.LCFI120:
	.cfi_restore 4
	.cfi_def_cfa_offset 56
	popq	%rdi
.LCFI121:
	.cfi_restore 5
	.cfi_def_cfa_offset 48
	popq	%rbp
.LCFI122:
	.cfi_restore 6
	.cfi_def_cfa_offset 40
	popq	%r12
.LCFI123:
	.cfi_restore 12
	.cfi_def_cfa_offset 32
.LVL560:
	.loc 3 224 1 view .LVU2534
	popq	%r13
.LCFI124:
	.cfi_restore 13
	.cfi_def_cfa_offset 24
	popq	%r14
.LCFI125:
	.cfi_restore 14
	.cfi_def_cfa_offset 16
	popq	%r15
.LCFI126:
	.cfi_restore 15
	.cfi_def_cfa_offset 8
	ret
	.cfi_endproc
.LFE143:
	.seh_endproc
	.p2align 4
	.def	secp256k1_scalar_get_b32;	.scl	3;	.type	32;	.endef
	.seh_proc	secp256k1_scalar_get_b32
secp256k1_scalar_get_b32:
.LVL561:
.LFB156:
	.file 4 "././libsecp256k1/src/scalar_8x32_impl.h"
	.loc 4 181 85 is_stmt 1 view -0
	.cfi_startproc
	.loc 4 181 85 is_stmt 0 view .LVU2536
	.seh_endprologue
	.loc 4 182 5 is_stmt 1 view .LVU2537
	.loc 4 181 85 is_stmt 0 view .LVU2538
	movq	%rcx, %rax
	.loc 4 182 22 view .LVU2539
	movzbl	31(%rdx), %ecx
.LVL562:
	.loc 4 182 12 view .LVU2540
	movb	%cl, (%rax)
	.loc 4 182 29 is_stmt 1 view .LVU2541
	.loc 4 182 46 is_stmt 0 view .LVU2542
	movzwl	30(%rdx), %ecx
	.loc 4 182 36 view .LVU2543
	movb	%cl, 1(%rax)
	.loc 4 182 53 is_stmt 1 view .LVU2544
	.loc 4 182 70 is_stmt 0 view .LVU2545
	movl	28(%rdx), %ecx
	.loc 4 182 60 view .LVU2546
	movb	%ch, 2(%rax)
	.loc 4 182 76 is_stmt 1 view .LVU2547
	.loc 4 182 83 is_stmt 0 view .LVU2548
	movl	28(%rdx), %ecx
	movb	%cl, 3(%rax)
	.loc 4 183 5 is_stmt 1 view .LVU2549
	.loc 4 183 22 is_stmt 0 view .LVU2550
	movzbl	27(%rdx), %ecx
	.loc 4 183 12 view .LVU2551
	movb	%cl, 4(%rax)
	.loc 4 183 29 is_stmt 1 view .LVU2552
	.loc 4 183 46 is_stmt 0 view .LVU2553
	movzwl	26(%rdx), %ecx
	.loc 4 183 36 view .LVU2554
	movb	%cl, 5(%rax)
	.loc 4 183 53 is_stmt 1 view .LVU2555
	.loc 4 183 70 is_stmt 0 view .LVU2556
	movl	24(%rdx), %ecx
	.loc 4 183 60 view .LVU2557
	movb	%ch, 6(%rax)
	.loc 4 183 76 is_stmt 1 view .LVU2558
	.loc 4 183 83 is_stmt 0 view .LVU2559
	movl	24(%rdx), %ecx
	movb	%cl, 7(%rax)
	.loc 4 184 5 is_stmt 1 view .LVU2560
	.loc 4 184 22 is_stmt 0 view .LVU2561
	movzbl	23(%rdx), %ecx
	.loc 4 184 12 view .LVU2562
	movb	%cl, 8(%rax)
	.loc 4 184 29 is_stmt 1 view .LVU2563
	.loc 4 184 46 is_stmt 0 view .LVU2564
	movzwl	22(%rdx), %ecx
	.loc 4 184 36 view .LVU2565
	movb	%cl, 9(%rax)
	.loc 4 184 53 is_stmt 1 view .LVU2566
	.loc 4 184 71 is_stmt 0 view .LVU2567
	movl	20(%rdx), %ecx
	.loc 4 184 61 view .LVU2568
	movb	%ch, 10(%rax)
	.loc 4 184 77 is_stmt 1 view .LVU2569
	.loc 4 184 85 is_stmt 0 view .LVU2570
	movl	20(%rdx), %ecx
	movb	%cl, 11(%rax)
	.loc 4 185 5 is_stmt 1 view .LVU2571
	.loc 4 185 23 is_stmt 0 view .LVU2572
	movzbl	19(%rdx), %ecx
	.loc 4 185 13 view .LVU2573
	movb	%cl, 12(%rax)
	.loc 4 185 30 is_stmt 1 view .LVU2574
	.loc 4 185 48 is_stmt 0 view .LVU2575
	movzwl	18(%rdx), %ecx
	.loc 4 185 38 view .LVU2576
	movb	%cl, 13(%rax)
	.loc 4 185 55 is_stmt 1 view .LVU2577
	.loc 4 185 73 is_stmt 0 view .LVU2578
	movl	16(%rdx), %ecx
	.loc 4 185 63 view .LVU2579
	movb	%ch, 14(%rax)
	.loc 4 185 79 is_stmt 1 view .LVU2580
	.loc 4 185 87 is_stmt 0 view .LVU2581
	movl	16(%rdx), %ecx
	movb	%cl, 15(%rax)
	.loc 4 186 5 is_stmt 1 view .LVU2582
	.loc 4 186 23 is_stmt 0 view .LVU2583
	movzbl	15(%rdx), %ecx
	.loc 4 186 13 view .LVU2584
	movb	%cl, 16(%rax)
	.loc 4 186 30 is_stmt 1 view .LVU2585
	.loc 4 186 48 is_stmt 0 view .LVU2586
	movzwl	14(%rdx), %ecx
	.loc 4 186 38 view .LVU2587
	movb	%cl, 17(%rax)
	.loc 4 186 55 is_stmt 1 view .LVU2588
	.loc 4 186 73 is_stmt 0 view .LVU2589
	movl	12(%rdx), %ecx
	.loc 4 186 63 view .LVU2590
	movb	%ch, 18(%rax)
	.loc 4 186 79 is_stmt 1 view .LVU2591
	.loc 4 186 87 is_stmt 0 view .LVU2592
	movl	12(%rdx), %ecx
	movb	%cl, 19(%rax)
	.loc 4 187 5 is_stmt 1 view .LVU2593
	.loc 4 187 23 is_stmt 0 view .LVU2594
	movzbl	11(%rdx), %ecx
	.loc 4 187 13 view .LVU2595
	movb	%cl, 20(%rax)
	.loc 4 187 30 is_stmt 1 view .LVU2596
	.loc 4 187 48 is_stmt 0 view .LVU2597
	movzwl	10(%rdx), %ecx
	.loc 4 187 38 view .LVU2598
	movb	%cl, 21(%rax)
	.loc 4 187 55 is_stmt 1 view .LVU2599
	.loc 4 187 73 is_stmt 0 view .LVU2600
	movl	8(%rdx), %ecx
	.loc 4 187 63 view .LVU2601
	movb	%ch, 22(%rax)
	.loc 4 187 79 is_stmt 1 view .LVU2602
	.loc 4 187 87 is_stmt 0 view .LVU2603
	movl	8(%rdx), %ecx
	movb	%cl, 23(%rax)
	.loc 4 188 5 is_stmt 1 view .LVU2604
	.loc 4 188 23 is_stmt 0 view .LVU2605
	movzbl	7(%rdx), %ecx
	.loc 4 188 13 view .LVU2606
	movb	%cl, 24(%rax)
	.loc 4 188 30 is_stmt 1 view .LVU2607
	.loc 4 188 48 is_stmt 0 view .LVU2608
	movzwl	6(%rdx), %ecx
	.loc 4 188 38 view .LVU2609
	movb	%cl, 25(%rax)
	.loc 4 188 55 is_stmt 1 view .LVU2610
	.loc 4 188 73 is_stmt 0 view .LVU2611
	movl	4(%rdx), %ecx
	.loc 4 188 63 view .LVU2612
	movb	%ch, 26(%rax)
	.loc 4 188 79 is_stmt 1 view .LVU2613
	.loc 4 188 87 is_stmt 0 view .LVU2614
	movl	4(%rdx), %ecx
	movb	%cl, 27(%rax)
	.loc 4 189 5 is_stmt 1 view .LVU2615
	.loc 4 189 23 is_stmt 0 view .LVU2616
	movl	(%rdx), %ecx
	shrl	$24, %ecx
	.loc 4 189 13 view .LVU2617
	movb	%cl, 28(%rax)
	.loc 4 189 30 is_stmt 1 view .LVU2618
	.loc 4 189 48 is_stmt 0 view .LVU2619
	movl	(%rdx), %ecx
	shrl	$16, %ecx
	.loc 4 189 38 view .LVU2620
	movb	%cl, 29(%rax)
	.loc 4 189 55 is_stmt 1 view .LVU2621
	.loc 4 189 73 is_stmt 0 view .LVU2622
	movl	(%rdx), %ecx
	.loc 4 189 63 view .LVU2623
	movb	%ch, 30(%rax)
	.loc 4 189 79 is_stmt 1 view .LVU2624
	.loc 4 189 87 is_stmt 0 view .LVU2625
	movl	(%rdx), %edx
.LVL563:
	.loc 4 189 87 view .LVU2626
	movb	%dl, 31(%rax)
	.loc 4 190 1 view .LVU2627
	ret
	.cfi_endproc
.LFE156:
	.seh_endproc
	.p2align 4
	.def	secp256k1_scalar_is_high;	.scl	3;	.type	32;	.endef
	.seh_proc	secp256k1_scalar_is_high
secp256k1_scalar_is_high:
.LVL564:
.LFB160:
	.loc 4 220 64 is_stmt 1 view -0
	.cfi_startproc
	.loc 4 220 64 is_stmt 0 view .LVU2629
	.seh_endprologue
	.loc 4 221 5 is_stmt 1 view .LVU2630
.LVL565:
	.loc 4 222 5 view .LVU2631
	.loc 4 223 5 view .LVU2632
	.loc 4 223 20 is_stmt 0 view .LVU2633
	xorl	%r8d, %r8d
	.loc 4 223 16 view .LVU2634
	movl	28(%rcx), %eax
	.loc 4 223 20 view .LVU2635
	cmpl	$2147483646, %eax
	setbe	%r8b
.LVL566:
	.loc 4 224 5 is_stmt 1 view .LVU2636
	.loc 4 224 21 is_stmt 0 view .LVU2637
	shrl	$31, %eax
	.loc 4 224 42 view .LVU2638
	movl	%r8d, %edx
.LVL567:
	.loc 4 224 42 view .LVU2639
	notl	%edx
.LVL568:
	.loc 4 224 40 view .LVU2640
	andl	%edx, %eax
.LVL569:
	.loc 4 225 5 is_stmt 1 view .LVU2641
	.loc 4 227 8 is_stmt 0 view .LVU2642
	movl	24(%rcx), %edx
.LVL570:
	.loc 4 227 8 view .LVU2643
	andl	20(%rcx), %edx
	andl	16(%rcx), %edx
	.loc 4 225 41 view .LVU2644
	movl	%eax, %r10d
	.loc 4 227 8 view .LVU2645
	cmpl	$-1, %edx
	.loc 4 225 41 view .LVU2646
	notl	%r10d
.LVL571:
	.loc 4 226 5 is_stmt 1 view .LVU2647
	.loc 4 227 5 view .LVU2648
	.loc 4 227 8 is_stmt 0 view .LVU2649
	setne	%dl
	.loc 4 228 20 view .LVU2650
	xorl	%r9d, %r9d
	.loc 4 227 8 view .LVU2651
	movzbl	%dl, %edx
	andl	%r10d, %edx
	orl	%r8d, %edx
.LVL572:
	.loc 4 228 5 is_stmt 1 view .LVU2652
	.loc 4 228 16 is_stmt 0 view .LVU2653
	movl	12(%rcx), %r8d
	.loc 4 228 20 view .LVU2654
	cmpl	$1566010994, %r8d
	setbe	%r9b
	.loc 4 228 39 view .LVU2655
	andl	%r10d, %r9d
	.loc 4 228 8 view .LVU2656
	orl	%edx, %r9d
.LVL573:
	.loc 4 229 5 is_stmt 1 view .LVU2657
	.loc 4 229 21 is_stmt 0 view .LVU2658
	xorl	%edx, %edx
	cmpl	$1566010995, %r8d
	.loc 4 229 42 view .LVU2659
	movl	%r9d, %r8d
	.loc 4 229 21 view .LVU2660
	seta	%dl
	.loc 4 229 42 view .LVU2661
	notl	%r8d
	.loc 4 229 40 view .LVU2662
	andl	%r8d, %edx
	.loc 4 230 20 view .LVU2663
	xorl	%r8d, %r8d
	.loc 4 229 9 view .LVU2664
	orl	%eax, %edx
.LVL574:
	.loc 4 230 5 is_stmt 1 view .LVU2665
	.loc 4 230 16 is_stmt 0 view .LVU2666
	movl	8(%rcx), %eax
	.loc 4 230 41 view .LVU2667
	movl	%edx, %r10d
	.loc 4 230 20 view .LVU2668
	cmpl	$1470386204, %eax
	.loc 4 230 41 view .LVU2669
	notl	%r10d
	.loc 4 230 20 view .LVU2670
	setbe	%r8b
	.loc 4 230 39 view .LVU2671
	andl	%r10d, %r8d
	.loc 4 230 8 view .LVU2672
	orl	%r9d, %r8d
.LVL575:
	.loc 4 231 5 is_stmt 1 view .LVU2673
	.loc 4 231 21 is_stmt 0 view .LVU2674
	cmpl	$1470386205, %eax
	seta	%al
	.loc 4 231 42 view .LVU2675
	movl	%r8d, %r9d
	notl	%r9d
	.loc 4 231 21 view .LVU2676
	movzbl	%al, %eax
	.loc 4 231 40 view .LVU2677
	andl	%r9d, %eax
	.loc 4 232 16 view .LVU2678
	movl	4(%rcx), %r9d
	.loc 4 231 9 view .LVU2679
	orl	%edx, %eax
.LVL576:
	.loc 4 232 5 is_stmt 1 view .LVU2680
	.loc 4 233 5 view .LVU2681
	.loc 4 234 5 view .LVU2682
	.loc 4 232 20 is_stmt 0 view .LVU2683
	xorl	%edx, %edx
	.loc 4 232 41 view .LVU2684
	movl	%eax, %r10d
	.loc 4 232 20 view .LVU2685
	cmpl	$-538366139, %r9d
	setbe	%dl
	.loc 4 232 41 view .LVU2686
	notl	%r10d
	.loc 4 232 39 view .LVU2687
	andl	%r10d, %edx
	.loc 4 232 8 view .LVU2688
	orl	%r8d, %edx
	.loc 4 234 21 view .LVU2689
	cmpl	$1746608288, (%rcx)
	seta	%cl
.LVL577:
	.loc 4 233 21 view .LVU2690
	cmpl	$-538366138, %r9d
	.loc 4 233 42 view .LVU2691
	notl	%edx
	.loc 4 233 21 view .LVU2692
	seta	%r8b
.LVL578:
	.loc 4 233 21 view .LVU2693
	orl	%r8d, %ecx
	movzbl	%cl, %ecx
	andl	%ecx, %edx
.LVL579:
	.loc 4 235 5 is_stmt 1 view .LVU2694
	.loc 4 234 9 is_stmt 0 view .LVU2695
	orl	%edx, %eax
.LVL580:
	.loc 4 236 1 view .LVU2696
	ret
	.cfi_endproc
.LFE160:
	.seh_endproc
	.p2align 4
	.def	secp256k1_scalar_reduce_512;	.scl	3;	.type	32;	.endef
	.seh_proc	secp256k1_scalar_reduce_512
secp256k1_scalar_reduce_512:
.LVL581:
.LFB162:
	.loc 4 349 81 is_stmt 1 view -0
	.cfi_startproc
	.loc 4 349 81 is_stmt 0 view .LVU2698
	pushq	%r15
	.seh_pushreg	%r15
.LCFI127:
	.cfi_def_cfa_offset 16
	.cfi_offset 15, -16
	pushq	%r14
	.seh_pushreg	%r14
.LCFI128:
	.cfi_def_cfa_offset 24
	.cfi_offset 14, -24
	pushq	%r13
	.seh_pushreg	%r13
.LCFI129:
	.cfi_def_cfa_offset 32
	.cfi_offset 13, -32
	pushq	%r12
	.seh_pushreg	%r12
.LCFI130:
	.cfi_def_cfa_offset 40
	.cfi_offset 12, -40
	pushq	%rbp
	.seh_pushreg	%rbp
.LCFI131:
	.cfi_def_cfa_offset 48
	.cfi_offset 6, -48
	pushq	%rdi
	.seh_pushreg	%rdi
.LCFI132:
	.cfi_def_cfa_offset 56
	.cfi_offset 5, -56
	pushq	%rsi
	.seh_pushreg	%rsi
.LCFI133:
	.cfi_def_cfa_offset 64
	.cfi_offset 4, -64
	pushq	%rbx
	.seh_pushreg	%rbx
.LCFI134:
	.cfi_def_cfa_offset 72
	.cfi_offset 3, -72
	subq	$56, %rsp
	.seh_stackalloc	56
.LCFI135:
	.cfi_def_cfa_offset 128
	.seh_endprologue
	.loc 4 350 5 is_stmt 1 view .LVU2699
	.loc 4 351 5 view .LVU2700
.LVL582:
	.loc 4 351 60 is_stmt 0 view .LVU2701
	movl	48(%rdx), %esi
	.loc 4 351 48 view .LVU2702
	movl	44(%rdx), %eax
	.loc 4 351 25 view .LVU2703
	movl	36(%rdx), %r11d
	.loc 4 363 5 view .LVU2704
	movl	4(%rdx), %r10d
	.loc 4 351 36 view .LVU2705
	movl	40(%rdx), %r14d
.LBB916:
	.loc 4 372 5 view .LVU2706
	movl	12(%rdx), %r12d
.LBE916:
	.loc 4 351 72 view .LVU2707
	movl	52(%rdx), %ebx
	.loc 4 351 96 view .LVU2708
	movl	60(%rdx), %r15d
	.loc 4 351 60 view .LVU2709
	movl	%esi, 4(%rsp)
.LBB917:
.LBB918:
	.loc 4 361 5 view .LVU2710
	movl	32(%rdx), %esi
.LBE918:
.LBE917:
	.loc 4 351 48 view .LVU2711
	movl	%eax, (%rsp)
.LBB922:
.LBB919:
	.loc 4 361 5 view .LVU2712
	imulq	$801750719, %rsi, %rax
.LBE919:
.LBE922:
	.loc 4 349 81 view .LVU2713
	movq	%rcx, 128(%rsp)
	.loc 4 351 36 view .LVU2714
	movl	%r14d, 24(%rsp)
	.loc 4 351 25 view .LVU2715
	movl	%r11d, 20(%rsp)
.LVL583:
	.loc 4 351 25 view .LVU2716
	movl	%eax, %edi
	addl	(%rdx), %edi
	.loc 4 351 72 view .LVU2717
	movl	%ebx, 8(%rsp)
.LVL584:
	.loc 4 351 72 view .LVU2718
	setc	%cl
.LVL585:
.LBB923:
.LBB920:
	.loc 4 361 5 view .LVU2719
	shrq	$32, %rax
	movl	%edi, 28(%rsp)
.LBE920:
.LBE923:
	.loc 4 351 84 view .LVU2720
	movl	56(%rdx), %ebx
.LVL586:
	.loc 4 351 84 view .LVU2721
	movzbl	%cl, %ecx
	addb	$-1, %cl
	movl	%ebx, 12(%rsp)
.LVL587:
	.loc 4 352 5 is_stmt 1 view .LVU2722
	.loc 4 353 5 view .LVU2723
	.loc 4 356 5 view .LVU2724
	.loc 4 360 5 view .LVU2725
	.loc 4 360 16 view .LVU2726
	.loc 4 360 24 view .LVU2727
.LBB924:
	.loc 4 361 5 view .LVU2728
.LBB921:
	.loc 4 361 5 view .LVU2729
	.loc 4 361 5 view .LVU2730
	.loc 4 361 5 view .LVU2731
.LBE921:
	.loc 4 361 5 view .LVU2732
	.loc 4 361 5 view .LVU2733
	.loc 4 361 5 view .LVU2734
	.loc 4 361 5 view .LVU2735
	.loc 4 361 5 view .LVU2736
.LBE924:
	.loc 4 361 37 view .LVU2737
	.loc 4 362 5 view .LVU2738
	.loc 4 362 5 view .LVU2739
	.loc 4 362 5 view .LVU2740
	.loc 4 362 5 view .LVU2741
	.loc 4 362 5 view .LVU2742
	.loc 4 362 21 view .LVU2743
	.loc 4 363 5 view .LVU2744
	adcl	%r10d, %eax
.LVL588:
	.loc 4 363 5 view .LVU2745
	.loc 4 363 5 view .LVU2746
	.loc 4 363 5 view .LVU2747
	.loc 4 363 5 view .LVU2748
	.loc 4 363 5 view .LVU2749
	.loc 4 363 22 view .LVU2750
.LBB925:
	.loc 4 364 5 view .LVU2751
.LBB926:
	.loc 4 364 5 view .LVU2752
	imulq	$801750719, %r11, %rbp
.LVL589:
	.loc 4 364 5 view .LVU2753
	.loc 4 364 5 view .LVU2754
	.loc 4 364 5 is_stmt 0 view .LVU2755
.LBE926:
	.loc 4 364 5 is_stmt 1 view .LVU2756
	xorl	%edi, %edi
	movl	%eax, %ecx
	addl	%ebp, %ecx
	setc	%dil
.LVL590:
	.loc 4 364 5 view .LVU2757
	.loc 4 364 5 view .LVU2758
	.loc 4 364 5 view .LVU2759
	.loc 4 364 5 view .LVU2760
	.loc 4 364 5 view .LVU2761
.LBE925:
	.loc 4 364 32 view .LVU2762
.LBB928:
	.loc 4 365 5 view .LVU2763
.LBB929:
	.loc 4 365 5 view .LVU2764
	imulq	$1076732275, %rsi, %r9
.LVL591:
	.loc 4 365 5 view .LVU2765
.LBE929:
.LBE928:
.LBB931:
.LBB927:
	.loc 4 364 5 is_stmt 0 view .LVU2766
	shrq	$32, %rbp
.LVL592:
	.loc 4 364 5 view .LVU2767
.LBE927:
.LBE931:
.LBB932:
.LBB930:
	.loc 4 365 5 view .LVU2768
	movq	%r9, %r8
	shrq	$32, %r8
	addl	%ebp, %r8d
.LVL593:
	.loc 4 365 5 is_stmt 1 view .LVU2769
	.loc 4 365 5 is_stmt 0 view .LVU2770
.LBE930:
	.loc 4 365 5 is_stmt 1 view .LVU2771
	addl	%r9d, %ecx
.LVL594:
	.loc 4 365 5 is_stmt 0 view .LVU2772
.LBE932:
.LBB933:
	.loc 4 367 5 view .LVU2773
	movl	8(%rdx), %r9d
.LVL595:
	.loc 4 367 5 view .LVU2774
	movl	%ecx, 32(%rsp)
	setc	%cl
.LBE933:
	.loc 4 363 5 view .LVU2775
	cmpl	%r10d, %eax
.LBB934:
.LBB935:
	.loc 4 368 5 view .LVU2776
	movl	%r14d, %r10d
.LVL596:
	.loc 4 368 5 view .LVU2777
	adcl	%r9d, %r8d
	imulq	$801750719, %r10, %rax
.LVL597:
	.loc 4 368 5 view .LVU2778
	movzbl	%cl, %ecx
.LVL598:
	.loc 4 368 5 view .LVU2779
.LBE935:
.LBE934:
.LBB938:
	.loc 4 365 5 is_stmt 1 view .LVU2780
	.loc 4 365 5 view .LVU2781
	.loc 4 365 5 view .LVU2782
	.loc 4 365 5 view .LVU2783
	.loc 4 365 5 view .LVU2784
.LBE938:
	.loc 4 365 32 view .LVU2785
	.loc 4 366 5 view .LVU2786
	.loc 4 366 5 view .LVU2787
	.loc 4 366 5 view .LVU2788
	.loc 4 366 5 view .LVU2789
	.loc 4 366 16 view .LVU2790
.LBB939:
	.loc 4 367 5 view .LVU2791
	.loc 4 367 5 view .LVU2792
	xorl	%r13d, %r13d
	addl	%edi, %r8d
	addl	%r8d, %ecx
.LVL599:
	.loc 4 367 5 view .LVU2793
	.loc 4 367 5 view .LVU2794
	.loc 4 367 5 view .LVU2795
	.loc 4 367 5 is_stmt 0 view .LVU2796
.LBE939:
	.loc 4 367 17 is_stmt 1 view .LVU2797
.LBB940:
	.loc 4 368 5 view .LVU2798
.LBB936:
	.loc 4 368 5 view .LVU2799
	.loc 4 368 5 view .LVU2800
	.loc 4 368 5 view .LVU2801
	.loc 4 368 5 is_stmt 0 view .LVU2802
.LBE936:
	.loc 4 368 5 is_stmt 1 view .LVU2803
	movl	%ecx, %edi
.LVL600:
	.loc 4 368 5 is_stmt 0 view .LVU2804
	addl	%eax, %edi
	setc	%r13b
.LVL601:
	.loc 4 368 5 is_stmt 1 view .LVU2805
	.loc 4 368 5 view .LVU2806
	.loc 4 368 5 view .LVU2807
	.loc 4 368 5 view .LVU2808
	.loc 4 368 5 view .LVU2809
.LBE940:
	.loc 4 368 32 view .LVU2810
.LBB941:
	.loc 4 369 5 view .LVU2811
.LBB942:
	.loc 4 369 5 view .LVU2812
	imulq	$1076732275, %r11, %r8
.LVL602:
	.loc 4 369 5 view .LVU2813
.LBE942:
.LBE941:
.LBB944:
.LBB937:
	.loc 4 368 5 is_stmt 0 view .LVU2814
	shrq	$32, %rax
.LVL603:
	.loc 4 368 5 view .LVU2815
.LBE937:
.LBE944:
.LBB945:
.LBB943:
	.loc 4 369 5 view .LVU2816
	movq	%r8, %rbp
	shrq	$32, %rbp
	addl	%ebp, %eax
.LVL604:
	.loc 4 369 5 is_stmt 1 view .LVU2817
	.loc 4 369 5 is_stmt 0 view .LVU2818
.LBE943:
	.loc 4 369 5 is_stmt 1 view .LVU2819
	xorl	%ebp, %ebp
	addl	%r8d, %edi
.LVL605:
	.loc 4 369 5 is_stmt 0 view .LVU2820
	setc	%bpl
.LVL606:
	.loc 4 369 5 is_stmt 1 view .LVU2821
	.loc 4 369 5 view .LVU2822
	.loc 4 369 5 view .LVU2823
	.loc 4 369 5 view .LVU2824
	.loc 4 369 5 view .LVU2825
.LBE945:
	.loc 4 369 32 view .LVU2826
.LBB946:
	.loc 4 370 5 view .LVU2827
.LBB947:
	.loc 4 370 5 view .LVU2828
	imulq	$1354194884, %rsi, %r8
.LVL607:
	.loc 4 370 5 view .LVU2829
	.loc 4 370 5 view .LVU2830
	.loc 4 370 5 is_stmt 0 view .LVU2831
.LBE947:
	.loc 4 370 5 is_stmt 1 view .LVU2832
	addl	%r8d, %edi
.LVL608:
	.loc 4 370 5 is_stmt 0 view .LVU2833
	movl	%edi, 16(%rsp)
	setc	%dil
.LBB948:
	shrq	$32, %r8
.LVL609:
	.loc 4 370 5 view .LVU2834
	addl	%r12d, %eax
.LBE948:
.LBE946:
.LBB949:
	.loc 4 367 5 view .LVU2835
	cmpl	%r9d, %ecx
.LBE949:
.LBB950:
.LBB951:
	.loc 4 373 5 view .LVU2836
	movl	(%rsp), %r9d
.LVL610:
	.loc 4 373 5 view .LVU2837
	movzbl	%dil, %edi
.LVL611:
	.loc 4 373 5 view .LVU2838
.LBE951:
.LBE950:
.LBB955:
	.loc 4 370 5 is_stmt 1 view .LVU2839
	.loc 4 370 5 view .LVU2840
	.loc 4 370 5 view .LVU2841
	.loc 4 370 5 view .LVU2842
	.loc 4 370 5 view .LVU2843
.LBE955:
	.loc 4 370 32 view .LVU2844
	.loc 4 371 5 view .LVU2845
	.loc 4 371 5 view .LVU2846
	.loc 4 371 5 view .LVU2847
	.loc 4 371 5 view .LVU2848
	.loc 4 371 16 view .LVU2849
.LBB956:
	.loc 4 372 5 view .LVU2850
	.loc 4 372 5 view .LVU2851
	adcl	%r8d, %eax
	addl	%r13d, %eax
.LBE956:
.LBB957:
.LBB952:
	.loc 4 373 5 is_stmt 0 view .LVU2852
	imulq	$801750719, %r9, %rcx
.LVL612:
	.loc 4 373 5 view .LVU2853
	xorl	%r13d, %r13d
.LVL613:
	.loc 4 373 5 view .LVU2854
	addl	%ebp, %eax
.LBE952:
.LBE957:
.LBB958:
	.loc 4 372 5 view .LVU2855
	addl	%eax, %edi
.LVL614:
	.loc 4 372 5 is_stmt 1 view .LVU2856
	.loc 4 372 5 view .LVU2857
	.loc 4 372 5 view .LVU2858
	.loc 4 372 5 is_stmt 0 view .LVU2859
.LBE958:
	.loc 4 372 17 is_stmt 1 view .LVU2860
.LBB959:
	.loc 4 373 5 view .LVU2861
.LBB953:
	.loc 4 373 5 view .LVU2862
	.loc 4 373 5 view .LVU2863
	.loc 4 373 5 view .LVU2864
	.loc 4 373 5 is_stmt 0 view .LVU2865
.LBE953:
	.loc 4 373 5 is_stmt 1 view .LVU2866
	movl	%edi, %r8d
	addl	%ecx, %r8d
	setc	%r13b
.LVL615:
	.loc 4 373 5 view .LVU2867
	.loc 4 373 5 view .LVU2868
	.loc 4 373 5 view .LVU2869
	.loc 4 373 5 view .LVU2870
	.loc 4 373 5 view .LVU2871
.LBE959:
	.loc 4 373 32 view .LVU2872
.LBB960:
	.loc 4 374 5 view .LVU2873
.LBB961:
	.loc 4 374 5 view .LVU2874
	imulq	$1076732275, %r10, %rax
.LVL616:
	.loc 4 374 5 view .LVU2875
.LBE961:
.LBE960:
.LBB963:
.LBB954:
	.loc 4 373 5 is_stmt 0 view .LVU2876
	shrq	$32, %rcx
.LVL617:
	.loc 4 373 5 view .LVU2877
.LBE954:
.LBE963:
.LBB964:
.LBB962:
	.loc 4 374 5 view .LVU2878
	movq	%rax, %rbp
.LVL618:
	.loc 4 374 5 view .LVU2879
	shrq	$32, %rbp
	addl	%ebp, %ecx
.LVL619:
	.loc 4 374 5 is_stmt 1 view .LVU2880
	.loc 4 374 5 is_stmt 0 view .LVU2881
.LBE962:
	.loc 4 374 5 is_stmt 1 view .LVU2882
	addl	%eax, %r8d
.LVL620:
	.loc 4 374 5 is_stmt 0 view .LVU2883
	setc	%al
.LVL621:
	.loc 4 374 5 view .LVU2884
.LBE964:
.LBB965:
.LBB966:
	.loc 4 375 5 view .LVU2885
	imulq	$1354194884, %r11, %rbp
	movzbl	%al, %eax
.LVL622:
	.loc 4 375 5 view .LVU2886
.LBE966:
.LBE965:
.LBB969:
	.loc 4 374 5 is_stmt 1 view .LVU2887
	.loc 4 374 5 view .LVU2888
	.loc 4 374 5 view .LVU2889
	.loc 4 374 5 view .LVU2890
	.loc 4 374 5 view .LVU2891
.LBE969:
	.loc 4 374 32 view .LVU2892
.LBB970:
	.loc 4 375 5 view .LVU2893
.LBB967:
	.loc 4 375 5 view .LVU2894
	.loc 4 375 5 view .LVU2895
	movq	%rbp, %r14
.LVL623:
	.loc 4 375 5 is_stmt 0 view .LVU2896
	shrq	$32, %r14
.LBE967:
.LBE970:
.LBB971:
	.loc 4 372 5 view .LVU2897
	cmpl	%r12d, %edi
	adcl	%r14d, %ecx
	addl	%r13d, %ecx
.LVL624:
	.loc 4 372 5 view .LVU2898
.LBE971:
.LBB972:
.LBB968:
	.loc 4 375 5 is_stmt 1 view .LVU2899
	.loc 4 375 5 is_stmt 0 view .LVU2900
.LBE968:
	.loc 4 375 5 is_stmt 1 view .LVU2901
	addl	%ebp, %r8d
.LVL625:
	.loc 4 375 5 view .LVU2902
	.loc 4 375 5 view .LVU2903
	.loc 4 375 5 is_stmt 0 discriminator 4 view .LVU2904
	adcl	%eax, %ecx
.LVL626:
	.loc 4 375 5 is_stmt 1 view .LVU2905
	.loc 4 375 5 view .LVU2906
	.loc 4 375 5 view .LVU2907
.LBE972:
	.loc 4 375 32 view .LVU2908
.LBB973:
	.loc 4 376 5 view .LVU2909
.LBB974:
	.loc 4 376 5 view .LVU2910
	imulq	$1162945305, %rsi, %rsi
.LVL627:
	.loc 4 376 5 view .LVU2911
	movq	%rsi, %rax
.LVL628:
	.loc 4 376 5 is_stmt 0 view .LVU2912
	shrq	$32, %rax
.LVL629:
	.loc 4 376 5 is_stmt 1 view .LVU2913
	.loc 4 376 5 is_stmt 0 view .LVU2914
.LBE974:
	.loc 4 376 5 is_stmt 1 view .LVU2915
	.loc 4 376 5 view .LVU2916
	.loc 4 376 5 view .LVU2917
	addl	%esi, %r8d
.LVL630:
	.loc 4 376 5 is_stmt 0 discriminator 4 view .LVU2918
	adcl	$0, %eax
.LVL631:
	.loc 4 376 5 view .LVU2919
	movl	%r8d, 36(%rsp)
	xorl	%r13d, %r13d
.LVL632:
	.loc 4 376 5 view .LVU2920
.LBE973:
.LBB975:
.LBB976:
	.loc 4 379 5 view .LVU2921
	movl	4(%rsp), %r8d
.LVL633:
	.loc 4 379 5 view .LVU2922
	addl	%ecx, %eax
	setc	%r13b
.LVL634:
	.loc 4 379 5 view .LVU2923
.LBE976:
.LBE975:
.LBB979:
	.loc 4 376 5 is_stmt 1 view .LVU2924
	.loc 4 376 5 view .LVU2925
	.loc 4 376 5 view .LVU2926
.LBE979:
	.loc 4 376 32 view .LVU2927
	.loc 4 377 5 view .LVU2928
	.loc 4 377 5 view .LVU2929
	.loc 4 377 5 view .LVU2930
	.loc 4 377 5 view .LVU2931
	.loc 4 377 16 view .LVU2932
.LBB980:
	.loc 4 378 5 view .LVU2933
	.loc 4 378 5 view .LVU2934
	xorl	%r12d, %r12d
.LVL635:
	.loc 4 378 5 is_stmt 0 view .LVU2935
	addl	16(%rdx), %eax
.LVL636:
	.loc 4 378 5 view .LVU2936
	setc	%r12b
.LVL637:
	.loc 4 378 5 is_stmt 1 view .LVU2937
	.loc 4 378 5 view .LVU2938
	.loc 4 378 5 view .LVU2939
	.loc 4 378 5 is_stmt 0 view .LVU2940
.LBE980:
	.loc 4 378 17 is_stmt 1 view .LVU2941
.LBB981:
	.loc 4 379 5 view .LVU2942
.LBB977:
	.loc 4 379 5 view .LVU2943
	imulq	$801750719, %r8, %rcx
.LVL638:
	.loc 4 379 5 view .LVU2944
	.loc 4 379 5 view .LVU2945
	.loc 4 379 5 is_stmt 0 view .LVU2946
.LBE977:
	.loc 4 379 5 is_stmt 1 view .LVU2947
	xorl	%ebp, %ebp
.LVL639:
	.loc 4 379 5 is_stmt 0 view .LVU2948
	addl	%ecx, %eax
.LVL640:
	.loc 4 379 5 view .LVU2949
	setc	%bpl
.LVL641:
	.loc 4 379 5 is_stmt 1 view .LVU2950
	.loc 4 379 5 view .LVU2951
	.loc 4 379 5 view .LVU2952
	.loc 4 379 5 view .LVU2953
	.loc 4 379 5 view .LVU2954
.LBE981:
	.loc 4 379 32 view .LVU2955
.LBB982:
	.loc 4 380 5 view .LVU2956
.LBB983:
	.loc 4 380 5 view .LVU2957
	imulq	$1076732275, %r9, %rsi
.LVL642:
	.loc 4 380 5 view .LVU2958
.LBE983:
.LBE982:
.LBB985:
.LBB978:
	.loc 4 379 5 is_stmt 0 view .LVU2959
	shrq	$32, %rcx
.LVL643:
	.loc 4 379 5 view .LVU2960
.LBE978:
.LBE985:
.LBB986:
.LBB984:
	.loc 4 380 5 view .LVU2961
	movq	%rsi, %rdi
.LVL644:
	.loc 4 380 5 view .LVU2962
	shrq	$32, %rdi
	addl	%edi, %ecx
.LVL645:
	.loc 4 380 5 is_stmt 1 view .LVU2963
	.loc 4 380 5 is_stmt 0 view .LVU2964
.LBE984:
	.loc 4 380 5 is_stmt 1 view .LVU2965
	xorl	%edi, %edi
	addl	%esi, %eax
.LVL646:
	.loc 4 380 5 is_stmt 0 view .LVU2966
	setc	%dil
.LVL647:
	.loc 4 380 5 is_stmt 1 view .LVU2967
	.loc 4 380 5 view .LVU2968
	.loc 4 380 5 view .LVU2969
	.loc 4 380 5 view .LVU2970
	.loc 4 380 5 view .LVU2971
.LBE986:
	.loc 4 380 32 view .LVU2972
.LBB987:
	.loc 4 381 5 view .LVU2973
.LBB988:
	.loc 4 381 5 view .LVU2974
	imulq	$1354194884, %r10, %rsi
.LVL648:
	.loc 4 381 5 view .LVU2975
	movq	%rsi, %r14
	shrq	$32, %r14
	addl	%r14d, %ecx
	addl	%r13d, %ecx
	addl	%r12d, %ecx
	addl	%ebp, %ecx
.LVL649:
	.loc 4 381 5 view .LVU2976
	.loc 4 381 5 is_stmt 0 view .LVU2977
.LBE988:
	.loc 4 381 5 is_stmt 1 view .LVU2978
	addl	%esi, %eax
.LVL650:
	.loc 4 381 5 view .LVU2979
	.loc 4 381 5 view .LVU2980
	.loc 4 381 5 is_stmt 0 discriminator 4 view .LVU2981
	adcl	%edi, %ecx
.LVL651:
	.loc 4 381 5 is_stmt 1 view .LVU2982
	.loc 4 381 5 view .LVU2983
	.loc 4 381 5 view .LVU2984
.LBE987:
	.loc 4 381 32 view .LVU2985
.LBB989:
	.loc 4 382 5 view .LVU2986
.LBB990:
	.loc 4 382 5 view .LVU2987
	imulq	$1162945305, %r11, %r11
.LVL652:
	.loc 4 382 5 view .LVU2988
	movq	%r11, %rsi
.LVL653:
	.loc 4 382 5 is_stmt 0 view .LVU2989
	shrq	$32, %rsi
.LVL654:
	.loc 4 382 5 is_stmt 1 view .LVU2990
	.loc 4 382 5 is_stmt 0 view .LVU2991
.LBE990:
	.loc 4 382 5 is_stmt 1 view .LVU2992
	.loc 4 382 5 view .LVU2993
	.loc 4 382 5 view .LVU2994
	addl	%eax, %r11d
.LVL655:
	.loc 4 382 5 is_stmt 0 discriminator 4 view .LVU2995
	movl	%esi, %eax
.LVL656:
	.loc 4 382 5 discriminator 4 view .LVU2996
	adcl	$0, %eax
	xorl	%edi, %edi
.LVL657:
	.loc 4 382 5 discriminator 4 view .LVU2997
	addl	%ecx, %eax
	setc	%dil
.LVL658:
	.loc 4 382 5 is_stmt 1 view .LVU2998
.LBE989:
.LBB991:
	.loc 4 383 5 is_stmt 0 view .LVU2999
	addl	32(%rdx), %r11d
	setc	%sil
	xorl	%ebp, %ebp
.LVL659:
	.loc 4 383 5 view .LVU3000
	movl	%r11d, 40(%rsp)
	movzbl	%sil, %esi
	addl	%esi, %eax
	setc	%bpl
.LBE991:
.LBB992:
	.loc 4 382 5 discriminator 4 view .LVU3001
	testl	%edi, %edi
	jne	.L213
	.loc 4 382 5 is_stmt 1 view .LVU3002
	.loc 4 382 5 view .LVU3003
.LBE992:
	.loc 4 382 32 view .LVU3004
.LBB993:
	.loc 4 383 5 view .LVU3005
	.loc 4 383 5 view .LVU3006
	.loc 4 383 5 view .LVU3007
.LVL660:
	.loc 4 383 5 view .LVU3008
	.loc 4 383 5 view .LVU3009
	testl	%ebp, %ebp
	je	.L96
	xorl	%eax, %eax
	.loc 4 383 5 is_stmt 0 discriminator 1 view .LVU3010
	movl	$1, %ebp
.LVL661:
.L96:
	.loc 4 383 5 discriminator 1 view .LVU3011
.LBE993:
	.loc 4 383 15 is_stmt 1 view .LVU3012
	.loc 4 384 5 view .LVU3013
	.loc 4 384 5 view .LVU3014
	.loc 4 384 5 view .LVU3015
	.loc 4 384 5 view .LVU3016
	.loc 4 384 16 view .LVU3017
.LBB994:
	.loc 4 385 5 view .LVU3018
	.loc 4 385 5 view .LVU3019
.LBE994:
.LBB995:
.LBB996:
	.loc 4 386 5 is_stmt 0 view .LVU3020
	movl	8(%rsp), %r11d
	xorl	%r14d, %r14d
	addl	20(%rdx), %eax
.LVL662:
	.loc 4 386 5 view .LVU3021
	setc	%r14b
.LVL663:
	.loc 4 386 5 view .LVU3022
.LBE996:
.LBE995:
.LBB999:
	.loc 4 385 5 is_stmt 1 view .LVU3023
	.loc 4 385 5 view .LVU3024
	.loc 4 385 5 view .LVU3025
	.loc 4 385 5 is_stmt 0 view .LVU3026
.LBE999:
	.loc 4 385 17 is_stmt 1 view .LVU3027
.LBB1000:
	.loc 4 386 5 view .LVU3028
.LBB997:
	.loc 4 386 5 view .LVU3029
	xorl	%r13d, %r13d
	imulq	$801750719, %r11, %rcx
.LVL664:
	.loc 4 386 5 view .LVU3030
	.loc 4 386 5 view .LVU3031
	.loc 4 386 5 is_stmt 0 view .LVU3032
.LBE997:
	.loc 4 386 5 is_stmt 1 view .LVU3033
	addl	%ecx, %eax
.LVL665:
	.loc 4 386 5 is_stmt 0 view .LVU3034
	setc	%r13b
.LVL666:
	.loc 4 386 5 is_stmt 1 view .LVU3035
	.loc 4 386 5 view .LVU3036
	.loc 4 386 5 view .LVU3037
	.loc 4 386 5 view .LVU3038
	.loc 4 386 5 view .LVU3039
.LBE1000:
	.loc 4 386 32 view .LVU3040
.LBB1001:
	.loc 4 387 5 view .LVU3041
.LBB1002:
	.loc 4 387 5 view .LVU3042
	imulq	$1076732275, %r8, %rsi
.LVL667:
	.loc 4 387 5 view .LVU3043
.LBE1002:
.LBE1001:
.LBB1004:
.LBB998:
	.loc 4 386 5 is_stmt 0 view .LVU3044
	shrq	$32, %rcx
.LVL668:
	.loc 4 386 5 view .LVU3045
.LBE998:
.LBE1004:
.LBB1005:
.LBB1003:
	.loc 4 387 5 view .LVU3046
	movq	%rsi, %r12
.LVL669:
	.loc 4 387 5 view .LVU3047
	shrq	$32, %r12
	addl	%r12d, %ecx
.LVL670:
	.loc 4 387 5 is_stmt 1 view .LVU3048
	.loc 4 387 5 is_stmt 0 view .LVU3049
.LBE1003:
	.loc 4 387 5 is_stmt 1 view .LVU3050
	xorl	%r12d, %r12d
	addl	%esi, %eax
.LVL671:
	.loc 4 387 5 is_stmt 0 view .LVU3051
	setc	%r12b
.LVL672:
	.loc 4 387 5 is_stmt 1 view .LVU3052
	.loc 4 387 5 view .LVU3053
	.loc 4 387 5 view .LVU3054
	.loc 4 387 5 view .LVU3055
	.loc 4 387 5 view .LVU3056
.LBE1005:
	.loc 4 387 32 view .LVU3057
.LBB1006:
	.loc 4 388 5 view .LVU3058
.LBB1007:
	.loc 4 388 5 view .LVU3059
	imulq	$1354194884, %r9, %rsi
.LVL673:
	.loc 4 388 5 view .LVU3060
	movq	%rsi, %rbx
.LVL674:
	.loc 4 388 5 is_stmt 0 view .LVU3061
	shrq	$32, %rbx
	addl	%ebx, %ecx
.LBE1007:
.LBE1006:
.LBB1009:
	.loc 4 390 5 view .LVU3062
	movl	20(%rsp), %ebx
	addl	%ebp, %ecx
	addl	%edi, %ecx
	addl	%r14d, %ecx
	addl	%r13d, %ecx
.LVL675:
	.loc 4 390 5 view .LVU3063
.LBE1009:
.LBB1010:
.LBB1008:
	.loc 4 388 5 is_stmt 1 view .LVU3064
	.loc 4 388 5 is_stmt 0 view .LVU3065
.LBE1008:
	.loc 4 388 5 is_stmt 1 view .LVU3066
	addl	%esi, %eax
.LVL676:
	.loc 4 388 5 view .LVU3067
	.loc 4 388 5 view .LVU3068
	.loc 4 388 5 is_stmt 0 discriminator 4 view .LVU3069
	adcl	%r12d, %ecx
.LVL677:
	.loc 4 388 5 is_stmt 1 view .LVU3070
	.loc 4 388 5 view .LVU3071
	.loc 4 388 5 view .LVU3072
.LBE1010:
	.loc 4 388 32 view .LVU3073
.LBB1011:
	.loc 4 389 5 view .LVU3074
.LBB1012:
	.loc 4 389 5 view .LVU3075
	imulq	$1162945305, %r10, %r10
.LVL678:
	.loc 4 389 5 view .LVU3076
	movq	%r10, %rsi
.LVL679:
	.loc 4 389 5 is_stmt 0 view .LVU3077
	shrq	$32, %rsi
.LVL680:
	.loc 4 389 5 is_stmt 1 view .LVU3078
	.loc 4 389 5 is_stmt 0 view .LVU3079
.LBE1012:
	.loc 4 389 5 is_stmt 1 view .LVU3080
	.loc 4 389 5 view .LVU3081
	.loc 4 389 5 view .LVU3082
	addl	%eax, %r10d
.LVL681:
	.loc 4 389 5 is_stmt 0 discriminator 4 view .LVU3083
	adcl	$0, %esi
.LVL682:
	.loc 4 389 5 discriminator 4 view .LVU3084
	addl	%esi, %ecx
.LVL683:
	.loc 4 389 5 discriminator 4 view .LVU3085
	setc	%sil
.LBE1011:
.LBB1013:
	.loc 4 390 5 view .LVU3086
	addl	%r10d, %ebx
	setc	%al
.LVL684:
	.loc 4 390 5 view .LVU3087
	movzbl	%sil, %esi
	.loc 4 390 5 view .LVU3088
.LBE1013:
.LBB1014:
	.loc 4 389 5 is_stmt 1 view .LVU3089
	xorl	%edi, %edi
.LBE1014:
.LBB1015:
	.loc 4 390 5 is_stmt 0 view .LVU3090
	movl	%ebx, 20(%rsp)
	movzbl	%al, %eax
	addl	%ecx, %eax
	setc	%dil
.LBE1015:
.LBB1016:
	.loc 4 389 5 discriminator 4 view .LVU3091
	testl	%esi, %esi
	jne	.L215
	.loc 4 389 5 is_stmt 1 view .LVU3092
	.loc 4 389 5 view .LVU3093
.LBE1016:
	.loc 4 389 32 view .LVU3094
.LBB1017:
	.loc 4 390 5 view .LVU3095
	.loc 4 390 5 view .LVU3096
	.loc 4 390 5 view .LVU3097
.LVL685:
	.loc 4 390 5 view .LVU3098
	.loc 4 390 5 view .LVU3099
	testl	%edi, %edi
	je	.L113
	xorl	%eax, %eax
	.loc 4 390 5 is_stmt 0 discriminator 1 view .LVU3100
	movl	$1, %edi
.LVL686:
.L113:
	.loc 4 390 5 discriminator 1 view .LVU3101
.LBE1017:
	.loc 4 390 15 is_stmt 1 view .LVU3102
	.loc 4 391 5 view .LVU3103
	.loc 4 391 5 view .LVU3104
	.loc 4 391 5 view .LVU3105
	.loc 4 391 5 view .LVU3106
	.loc 4 391 16 view .LVU3107
.LBB1018:
	.loc 4 392 5 view .LVU3108
	.loc 4 392 5 view .LVU3109
.LBE1018:
.LBB1019:
.LBB1020:
	.loc 4 393 5 is_stmt 0 view .LVU3110
	movl	12(%rsp), %r10d
	xorl	%r13d, %r13d
.LVL687:
	.loc 4 393 5 view .LVU3111
	addl	24(%rdx), %eax
.LVL688:
	.loc 4 393 5 view .LVU3112
	setc	%r13b
.LVL689:
	.loc 4 393 5 view .LVU3113
.LBE1020:
.LBE1019:
.LBB1023:
	.loc 4 392 5 is_stmt 1 view .LVU3114
	.loc 4 392 5 view .LVU3115
	.loc 4 392 5 view .LVU3116
	.loc 4 392 5 is_stmt 0 view .LVU3117
.LBE1023:
	.loc 4 392 17 is_stmt 1 view .LVU3118
.LBB1024:
	.loc 4 393 5 view .LVU3119
.LBB1021:
	.loc 4 393 5 view .LVU3120
	xorl	%r12d, %r12d
.LVL690:
	.loc 4 393 5 is_stmt 0 view .LVU3121
	imulq	$801750719, %r10, %rcx
.LVL691:
	.loc 4 393 5 is_stmt 1 view .LVU3122
	.loc 4 393 5 view .LVU3123
	.loc 4 393 5 is_stmt 0 view .LVU3124
.LBE1021:
	.loc 4 393 5 is_stmt 1 view .LVU3125
	addl	%ecx, %eax
.LVL692:
	.loc 4 393 5 is_stmt 0 view .LVU3126
	setc	%r12b
.LVL693:
	.loc 4 393 5 is_stmt 1 view .LVU3127
	.loc 4 393 5 view .LVU3128
	.loc 4 393 5 view .LVU3129
	.loc 4 393 5 view .LVU3130
	.loc 4 393 5 view .LVU3131
.LBE1024:
	.loc 4 393 32 view .LVU3132
.LBB1025:
	.loc 4 394 5 view .LVU3133
.LBB1026:
	.loc 4 394 5 view .LVU3134
	imulq	$1076732275, %r11, %rbx
.LVL694:
	.loc 4 394 5 view .LVU3135
.LBE1026:
.LBE1025:
.LBB1028:
.LBB1022:
	.loc 4 393 5 is_stmt 0 view .LVU3136
	shrq	$32, %rcx
.LVL695:
	.loc 4 393 5 view .LVU3137
.LBE1022:
.LBE1028:
.LBB1029:
.LBB1027:
	.loc 4 394 5 view .LVU3138
	movq	%rbx, %rbp
	shrq	$32, %rbp
	addl	%ebp, %ecx
.LVL696:
	.loc 4 394 5 is_stmt 1 view .LVU3139
	.loc 4 394 5 is_stmt 0 view .LVU3140
.LBE1027:
	.loc 4 394 5 is_stmt 1 view .LVU3141
	xorl	%ebp, %ebp
	addl	%ebx, %eax
.LVL697:
	.loc 4 394 5 is_stmt 0 view .LVU3142
	setc	%bpl
.LVL698:
	.loc 4 394 5 is_stmt 1 view .LVU3143
	.loc 4 394 5 view .LVU3144
	.loc 4 394 5 view .LVU3145
	.loc 4 394 5 view .LVU3146
	.loc 4 394 5 view .LVU3147
.LBE1029:
	.loc 4 394 32 view .LVU3148
.LBB1030:
	.loc 4 395 5 view .LVU3149
.LBB1031:
	.loc 4 395 5 view .LVU3150
	imulq	$1354194884, %r8, %rbx
.LVL699:
	.loc 4 395 5 view .LVU3151
	movq	%rbx, %r14
.LVL700:
	.loc 4 395 5 is_stmt 0 view .LVU3152
	shrq	$32, %r14
	addl	%r14d, %ecx
	addl	%edi, %ecx
	addl	%esi, %ecx
	addl	%r13d, %ecx
	addl	%r12d, %ecx
.LVL701:
	.loc 4 395 5 is_stmt 1 view .LVU3153
	.loc 4 395 5 is_stmt 0 view .LVU3154
.LBE1031:
	.loc 4 395 5 is_stmt 1 view .LVU3155
	addl	%ebx, %eax
.LVL702:
	.loc 4 395 5 view .LVU3156
	.loc 4 395 5 view .LVU3157
	.loc 4 395 5 is_stmt 0 discriminator 4 view .LVU3158
	adcl	%ebp, %ecx
.LVL703:
	.loc 4 395 5 is_stmt 1 view .LVU3159
	.loc 4 395 5 view .LVU3160
	.loc 4 395 5 view .LVU3161
.LBE1030:
	.loc 4 395 32 view .LVU3162
.LBB1032:
	.loc 4 396 5 view .LVU3163
.LBB1033:
	.loc 4 396 5 view .LVU3164
	imulq	$1162945305, %r9, %r9
.LVL704:
	.loc 4 396 5 view .LVU3165
	movq	%r9, %rbx
.LVL705:
	.loc 4 396 5 is_stmt 0 view .LVU3166
	shrq	$32, %rbx
.LVL706:
	.loc 4 396 5 is_stmt 1 view .LVU3167
	.loc 4 396 5 is_stmt 0 view .LVU3168
.LBE1033:
	.loc 4 396 5 is_stmt 1 view .LVU3169
	.loc 4 396 5 view .LVU3170
	.loc 4 396 5 view .LVU3171
	addl	%eax, %r9d
.LVL707:
	.loc 4 396 5 is_stmt 0 view .LVU3172
.LBE1032:
.LBB1034:
	.loc 4 397 5 view .LVU3173
	movl	24(%rsp), %eax
.LVL708:
	.loc 4 397 5 view .LVU3174
.LBE1034:
.LBB1035:
	.loc 4 396 5 discriminator 4 view .LVU3175
	adcl	$0, %ebx
	addl	%ebx, %ecx
.LVL709:
	.loc 4 396 5 discriminator 4 view .LVU3176
	setc	%bl
.LBE1035:
.LBB1036:
	.loc 4 397 5 view .LVU3177
	addl	%r9d, %eax
	movl	%eax, 24(%rsp)
	setc	%al
	movzbl	%bl, %ebx
	.loc 4 397 5 view .LVU3178
.LBE1036:
.LBB1037:
	.loc 4 396 5 is_stmt 1 view .LVU3179
	xorl	%esi, %esi
.LBE1037:
.LBB1038:
	.loc 4 397 5 is_stmt 0 view .LVU3180
	movzbl	%al, %eax
	addl	%ecx, %eax
	setc	%sil
.LBE1038:
.LBB1039:
	.loc 4 396 5 discriminator 4 view .LVU3181
	testl	%ebx, %ebx
	jne	.L217
	.loc 4 396 5 is_stmt 1 view .LVU3182
	.loc 4 396 5 view .LVU3183
.LBE1039:
	.loc 4 396 32 view .LVU3184
.LBB1040:
	.loc 4 397 5 view .LVU3185
	.loc 4 397 5 view .LVU3186
	.loc 4 397 5 view .LVU3187
.LVL710:
	.loc 4 397 5 view .LVU3188
	.loc 4 397 5 view .LVU3189
	testl	%esi, %esi
	je	.L130
	xorl	%eax, %eax
	.loc 4 397 5 is_stmt 0 discriminator 1 view .LVU3190
	movl	$1, %esi
.LVL711:
.L130:
	.loc 4 397 5 discriminator 1 view .LVU3191
.LBE1040:
	.loc 4 397 15 is_stmt 1 view .LVU3192
	.loc 4 398 5 view .LVU3193
	.loc 4 398 5 view .LVU3194
	.loc 4 398 5 view .LVU3195
	.loc 4 398 5 view .LVU3196
	.loc 4 398 16 view .LVU3197
.LBB1041:
	.loc 4 399 5 view .LVU3198
	.loc 4 399 5 view .LVU3199
	xorl	%r12d, %r12d
.LVL712:
	.loc 4 399 5 is_stmt 0 view .LVU3200
.LBE1041:
.LBB1042:
.LBB1043:
	.loc 4 400 5 view .LVU3201
	movl	%r15d, %r9d
	addl	28(%rdx), %eax
.LVL713:
	.loc 4 400 5 view .LVU3202
	setc	%r12b
.LVL714:
	.loc 4 400 5 view .LVU3203
.LBE1043:
.LBE1042:
.LBB1046:
	.loc 4 399 5 is_stmt 1 view .LVU3204
	.loc 4 399 5 view .LVU3205
	.loc 4 399 5 view .LVU3206
	.loc 4 399 5 is_stmt 0 view .LVU3207
.LBE1046:
	.loc 4 399 17 is_stmt 1 view .LVU3208
.LBB1047:
	.loc 4 400 5 view .LVU3209
.LBB1044:
	.loc 4 400 5 view .LVU3210
	imulq	$801750719, %r9, %rdx
.LVL715:
	.loc 4 400 5 view .LVU3211
	.loc 4 400 5 view .LVU3212
	.loc 4 400 5 is_stmt 0 view .LVU3213
.LBE1044:
	.loc 4 400 5 is_stmt 1 view .LVU3214
	xorl	%ebp, %ebp
.LVL716:
	.loc 4 400 5 is_stmt 0 view .LVU3215
	addl	%edx, %eax
.LVL717:
	.loc 4 400 5 view .LVU3216
	setc	%bpl
.LVL718:
	.loc 4 400 5 is_stmt 1 view .LVU3217
	.loc 4 400 5 view .LVU3218
	.loc 4 400 5 view .LVU3219
	.loc 4 400 5 view .LVU3220
	.loc 4 400 5 view .LVU3221
.LBE1047:
	.loc 4 400 32 view .LVU3222
.LBB1048:
	.loc 4 401 5 view .LVU3223
.LBB1049:
	.loc 4 401 5 view .LVU3224
	imulq	$1076732275, %r10, %rcx
.LVL719:
	.loc 4 401 5 view .LVU3225
.LBE1049:
.LBE1048:
.LBB1051:
.LBB1045:
	.loc 4 400 5 is_stmt 0 view .LVU3226
	shrq	$32, %rdx
.LVL720:
	.loc 4 400 5 view .LVU3227
.LBE1045:
.LBE1051:
.LBB1052:
.LBB1050:
	.loc 4 401 5 view .LVU3228
	movq	%rcx, %rdi
	shrq	$32, %rdi
	addl	%edi, %edx
.LVL721:
	.loc 4 401 5 is_stmt 1 view .LVU3229
	.loc 4 401 5 is_stmt 0 view .LVU3230
.LBE1050:
	.loc 4 401 5 is_stmt 1 view .LVU3231
	xorl	%edi, %edi
	addl	%ecx, %eax
.LVL722:
	.loc 4 401 5 is_stmt 0 view .LVU3232
	setc	%dil
.LVL723:
	.loc 4 401 5 is_stmt 1 view .LVU3233
	.loc 4 401 5 view .LVU3234
	.loc 4 401 5 view .LVU3235
	.loc 4 401 5 view .LVU3236
	.loc 4 401 5 view .LVU3237
.LBE1052:
	.loc 4 401 32 view .LVU3238
.LBB1053:
	.loc 4 402 5 view .LVU3239
.LBB1054:
	.loc 4 402 5 view .LVU3240
	imulq	$1354194884, %r11, %rcx
.LVL724:
	.loc 4 402 5 view .LVU3241
	movq	%rcx, %r13
.LVL725:
	.loc 4 402 5 is_stmt 0 view .LVU3242
	shrq	$32, %r13
	addl	%r13d, %edx
	addl	%esi, %edx
	addl	%ebx, %edx
	addl	%r12d, %edx
	addl	%ebp, %edx
.LVL726:
	.loc 4 402 5 is_stmt 1 view .LVU3243
	.loc 4 402 5 is_stmt 0 view .LVU3244
.LBE1054:
	.loc 4 402 5 is_stmt 1 view .LVU3245
	addl	%ecx, %eax
.LVL727:
	.loc 4 402 5 view .LVU3246
	.loc 4 402 5 view .LVU3247
	.loc 4 402 5 is_stmt 0 discriminator 4 view .LVU3248
	adcl	%edi, %edx
.LVL728:
	.loc 4 402 5 discriminator 4 view .LVU3249
.LBE1053:
.LBB1055:
.LBB1056:
	.loc 4 403 5 view .LVU3250
	imulq	$1162945305, %r8, %r8
.LVL729:
	.loc 4 403 5 view .LVU3251
.LBE1056:
.LBE1055:
.LBB1058:
	.loc 4 402 5 discriminator 4 view .LVU3252
	movl	%edx, %ecx
.LVL730:
	.loc 4 402 5 is_stmt 1 view .LVU3253
	.loc 4 402 5 view .LVU3254
	.loc 4 402 5 view .LVU3255
.LBE1058:
	.loc 4 402 32 view .LVU3256
.LBB1059:
	.loc 4 403 5 view .LVU3257
.LBB1057:
	.loc 4 403 5 view .LVU3258
	.loc 4 403 5 view .LVU3259
	movq	%r8, %rdx
.LVL731:
	.loc 4 403 5 is_stmt 0 view .LVU3260
	shrq	$32, %rdx
.LVL732:
	.loc 4 403 5 is_stmt 1 view .LVU3261
	.loc 4 403 5 is_stmt 0 view .LVU3262
.LBE1057:
	.loc 4 403 5 is_stmt 1 view .LVU3263
	.loc 4 403 5 view .LVU3264
	.loc 4 403 5 view .LVU3265
	addl	%eax, %r8d
.LVL733:
	.loc 4 403 5 is_stmt 0 view .LVU3266
.LBE1059:
.LBB1060:
	.loc 4 404 5 view .LVU3267
	movl	(%rsp), %eax
.LVL734:
	.loc 4 404 5 view .LVU3268
.LBE1060:
.LBB1061:
	.loc 4 403 5 discriminator 4 view .LVU3269
	adcl	$0, %edx
	xorl	%ebx, %ebx
	addl	%ecx, %edx
	setc	%bl
.LVL735:
	.loc 4 403 5 is_stmt 1 view .LVU3270
.LBE1061:
.LBB1062:
	.loc 4 404 5 is_stmt 0 view .LVU3271
	addl	%r8d, %eax
	movl	%eax, 44(%rsp)
	setc	%al
	xorl	%r8d, %r8d
	movzbl	%al, %eax
	addl	%eax, %edx
	setc	%r8b
.LBE1062:
.LBB1063:
.LBB1064:
	.loc 4 406 5 view .LVU3272
	imulq	$1076732275, %r9, %rcx
	movq	%rcx, %rax
	shrq	$32, %rax
.LBE1064:
.LBE1063:
.LBB1066:
	.loc 4 403 5 discriminator 4 view .LVU3273
	testl	%ebx, %ebx
	jne	.L219
	.loc 4 403 5 is_stmt 1 view .LVU3274
	.loc 4 403 5 view .LVU3275
.LBE1066:
	.loc 4 403 32 view .LVU3276
.LBB1067:
	.loc 4 404 5 view .LVU3277
	.loc 4 404 5 view .LVU3278
	.loc 4 404 5 view .LVU3279
.LVL736:
	.loc 4 404 5 view .LVU3280
	.loc 4 404 5 view .LVU3281
	testl	%r8d, %r8d
	je	.L147
	.loc 4 404 5 is_stmt 0 discriminator 4 view .LVU3282
	movl	$1, %r8d
.LVL737:
.L148:
	.loc 4 404 5 discriminator 4 view .LVU3283
.LBE1067:
.LBB1068:
	.loc 4 406 5 is_stmt 1 view .LVU3284
	.loc 4 406 5 view .LVU3285
	.loc 4 406 5 view .LVU3286
	.loc 4 406 5 view .LVU3287
.LBE1068:
	.loc 4 406 32 view .LVU3288
.LBB1069:
	.loc 4 407 5 view .LVU3289
.LBB1070:
	.loc 4 407 5 view .LVU3290
	imulq	$1354194884, %r10, %rdx
.LVL738:
	.loc 4 407 5 view .LVU3291
	.loc 4 407 5 view .LVU3292
	.loc 4 407 5 is_stmt 0 view .LVU3293
.LBE1070:
	.loc 4 407 5 is_stmt 1 view .LVU3294
	xorl	%esi, %esi
	movl	12(%rsp), %r14d
	addl	%edx, %ecx
	setc	%sil
.LVL739:
	.loc 4 407 5 view .LVU3295
	.loc 4 407 5 view .LVU3296
	.loc 4 407 5 view .LVU3297
	.loc 4 407 5 view .LVU3298
	.loc 4 407 5 view .LVU3299
.LBE1069:
	.loc 4 407 32 view .LVU3300
.LBB1072:
	.loc 4 408 5 view .LVU3301
.LBB1073:
	.loc 4 408 5 view .LVU3302
	imulq	$1162945305, %r11, %r11
.LVL740:
	.loc 4 408 5 view .LVU3303
.LBE1073:
.LBE1072:
.LBB1076:
.LBB1071:
	.loc 4 407 5 is_stmt 0 view .LVU3304
	shrq	$32, %rdx
.LVL741:
	.loc 4 407 5 view .LVU3305
	xorl	%edi, %edi
.LVL742:
	.loc 4 407 5 view .LVU3306
	addl	%edx, %eax
.LVL743:
	.loc 4 407 5 view .LVU3307
.LBE1071:
.LBE1076:
.LBB1077:
.LBB1074:
	.loc 4 408 5 is_stmt 1 view .LVU3308
	.loc 4 408 5 is_stmt 0 view .LVU3309
.LBE1074:
	.loc 4 408 5 is_stmt 1 view .LVU3310
	movl	4(%rsp), %edx
	addl	%r11d, %ecx
.LVL744:
	.loc 4 408 5 is_stmt 0 view .LVU3311
	setc	%dil
.LVL745:
	.loc 4 408 5 is_stmt 1 view .LVU3312
	.loc 4 408 5 view .LVU3313
	.loc 4 408 5 view .LVU3314
	.loc 4 408 5 view .LVU3315
	.loc 4 408 5 view .LVU3316
.LBE1077:
	.loc 4 408 32 view .LVU3317
.LBB1078:
	.loc 4 409 5 view .LVU3318
	.loc 4 409 5 view .LVU3319
	addl	%ecx, %edx
	setc	%bpl
.LVL746:
	.loc 4 409 5 is_stmt 0 view .LVU3320
	movl	%edx, %ecx
.LVL747:
	.loc 4 409 5 view .LVU3321
.LBE1078:
.LBB1079:
.LBB1075:
	.loc 4 408 5 view .LVU3322
	shrq	$32, %r11
.LVL748:
	.loc 4 408 5 view .LVU3323
.LBE1075:
.LBE1079:
.LBB1080:
.LBB1081:
	.loc 4 411 5 view .LVU3324
	imulq	$1354194884, %r9, %rdx
	movzbl	%bpl, %ebp
.LVL749:
	.loc 4 411 5 view .LVU3325
.LBE1081:
.LBE1080:
.LBB1085:
	.loc 4 409 5 is_stmt 1 view .LVU3326
	.loc 4 409 5 view .LVU3327
	.loc 4 409 5 view .LVU3328
.LBE1085:
	.loc 4 409 15 view .LVU3329
	.loc 4 410 5 view .LVU3330
	.loc 4 410 5 view .LVU3331
	.loc 4 410 5 view .LVU3332
	.loc 4 410 5 view .LVU3333
	.loc 4 410 16 view .LVU3334
.LBB1086:
	.loc 4 411 5 view .LVU3335
.LBB1082:
	.loc 4 411 5 view .LVU3336
	.loc 4 411 5 view .LVU3337
	.loc 4 411 5 view .LVU3338
	.loc 4 411 5 is_stmt 0 view .LVU3339
.LBE1082:
	.loc 4 411 5 is_stmt 1 view .LVU3340
.LBE1086:
.LBB1087:
.LBB1088:
	.loc 4 426 5 is_stmt 0 view .LVU3341
	movl	%ecx, (%rsp)
.LVL750:
	.loc 4 426 5 view .LVU3342
.LBE1088:
.LBE1087:
.LBB1093:
.LBB1094:
	.loc 4 412 5 view .LVU3343
	imulq	$1162945305, %r10, %r10
.LVL751:
	.loc 4 412 5 view .LVU3344
.LBE1094:
.LBE1093:
.LBB1098:
	.loc 4 411 5 view .LVU3345
	addl	%edx, %eax
	addl	%r11d, %eax
.LBE1098:
.LBB1099:
.LBB1095:
	.loc 4 412 5 view .LVU3346
	movq	%r10, %r11
.LBE1095:
.LBE1099:
.LBB1100:
	.loc 4 411 5 view .LVU3347
	addl	%ebx, %eax
.LBE1100:
.LBB1101:
.LBB1096:
	.loc 4 412 5 view .LVU3348
	shrq	$32, %r11
	movl	8(%rsp), %ebx
	.loc 4 412 5 view .LVU3349
.LBE1096:
.LBE1101:
.LBB1102:
	.loc 4 411 5 view .LVU3350
	addl	%r8d, %eax
.LBB1083:
	movq	%rdx, %r8
.LBE1083:
	addl	%esi, %eax
.LBB1084:
	shrq	$32, %r8
.LBE1084:
	addl	%edi, %eax
	addl	%r11d, %r8d
	xorl	%r11d, %r11d
	addl	%ebp, %eax
.LVL752:
	.loc 4 411 5 is_stmt 1 view .LVU3351
	.loc 4 411 5 view .LVU3352
	.loc 4 411 5 view .LVU3353
	.loc 4 411 5 view .LVU3354
	.loc 4 411 5 view .LVU3355
.LBE1102:
	.loc 4 411 32 view .LVU3356
.LBB1103:
	.loc 4 412 5 view .LVU3357
.LBB1097:
	.loc 4 412 5 view .LVU3358
	.loc 4 412 5 view .LVU3359
	.loc 4 412 5 view .LVU3360
	.loc 4 412 5 is_stmt 0 view .LVU3361
.LBE1097:
	.loc 4 412 5 is_stmt 1 view .LVU3362
	movl	32(%rsp), %ebp
.LVL753:
	.loc 4 412 5 is_stmt 0 view .LVU3363
	addl	%eax, %r10d
.LVL754:
	.loc 4 412 5 view .LVU3364
	setc	%r11b
.LVL755:
	.loc 4 412 5 is_stmt 1 view .LVU3365
	.loc 4 412 5 view .LVU3366
	.loc 4 412 5 view .LVU3367
	.loc 4 412 5 view .LVU3368
	.loc 4 412 5 view .LVU3369
.LBE1103:
	.loc 4 412 32 view .LVU3370
.LBB1104:
	.loc 4 413 5 view .LVU3371
	.loc 4 413 5 view .LVU3372
	addl	%r10d, %ebx
	setc	%r10b
.LVL756:
	.loc 4 413 5 is_stmt 0 view .LVU3373
.LBE1104:
.LBB1105:
.LBB1106:
	.loc 4 415 5 view .LVU3374
	imulq	$1162945305, %r9, %r9
.LVL757:
	.loc 4 415 5 view .LVU3375
.LBE1106:
.LBE1105:
.LBB1110:
	.loc 4 411 5 view .LVU3376
	cmpl	%edx, %eax
.LBE1110:
.LBB1111:
.LBB1112:
	.loc 4 429 5 view .LVU3377
	movl	%ebx, %esi
.LVL758:
	.loc 4 429 5 view .LVU3378
	movzbl	%r10b, %r10d
.LVL759:
	.loc 4 429 5 view .LVU3379
.LBE1112:
.LBE1111:
.LBB1116:
	.loc 4 413 5 is_stmt 1 view .LVU3380
	.loc 4 413 5 view .LVU3381
	.loc 4 413 5 view .LVU3382
.LBE1116:
	.loc 4 413 15 view .LVU3383
	.loc 4 414 5 view .LVU3384
	.loc 4 414 5 view .LVU3385
	.loc 4 414 5 view .LVU3386
	.loc 4 414 5 view .LVU3387
	.loc 4 414 16 view .LVU3388
.LBB1117:
	.loc 4 415 5 view .LVU3389
.LBB1107:
	.loc 4 415 5 view .LVU3390
	.loc 4 415 5 view .LVU3391
	.loc 4 415 5 view .LVU3392
.LBE1107:
.LBE1117:
.LBB1118:
.LBB1113:
	.loc 4 429 5 is_stmt 0 view .LVU3393
	movl	%ebx, 4(%rsp)
.LVL760:
	.loc 4 429 5 view .LVU3394
	adcl	%r9d, %r8d
.LBE1113:
.LBE1118:
.LBB1119:
.LBB1108:
	.loc 4 415 5 view .LVU3395
	movq	%r9, %rax
.LVL761:
	.loc 4 415 5 view .LVU3396
	addl	%r11d, %r8d
.LVL762:
	.loc 4 415 5 view .LVU3397
.LBE1108:
	.loc 4 415 5 is_stmt 1 view .LVU3398
.LBB1109:
	shrq	$32, %rax
.LBE1109:
.LBE1119:
.LBB1120:
.LBB1089:
	.loc 4 426 5 is_stmt 0 view .LVU3399
	movl	%ecx, %r11d
.LVL763:
	.loc 4 426 5 view .LVU3400
	movl	36(%rsp), %ecx
.LVL764:
	.loc 4 426 5 view .LVU3401
.LBE1089:
.LBE1120:
.LBB1121:
	.loc 4 415 5 view .LVU3402
	addl	%r10d, %r8d
.LVL765:
	.loc 4 415 5 is_stmt 1 view .LVU3403
	.loc 4 415 5 view .LVU3404
	.loc 4 415 5 view .LVU3405
	.loc 4 415 5 view .LVU3406
	.loc 4 415 5 view .LVU3407
.LBE1121:
	.loc 4 415 32 view .LVU3408
.LBB1122:
	.loc 4 416 5 view .LVU3409
	.loc 4 416 5 view .LVU3410
	xorl	%r10d, %r10d
.LVL766:
	.loc 4 416 5 is_stmt 0 view .LVU3411
	addl	%r8d, %r14d
	setc	%r10b
.LVL767:
	.loc 4 416 5 is_stmt 1 view .LVU3412
	.loc 4 416 5 view .LVU3413
.LBE1122:
.LBB1123:
	.loc 4 415 5 is_stmt 0 view .LVU3414
	cmpl	%r9d, %r8d
.LBE1123:
.LBB1124:
.LBB1125:
	.loc 4 433 5 view .LVU3415
	movl	%r14d, 8(%rsp)
.LVL768:
	.loc 4 433 5 view .LVU3416
	adcl	%r15d, %eax
.LBE1125:
.LBE1124:
.LBB1129:
	.loc 4 416 5 is_stmt 1 view .LVU3417
.LBE1129:
	.loc 4 416 15 view .LVU3418
	.loc 4 417 5 view .LVU3419
.LVL769:
	.loc 4 417 5 view .LVU3420
	.loc 4 417 5 view .LVU3421
	.loc 4 417 5 view .LVU3422
	.loc 4 417 17 view .LVU3423
	.loc 4 418 5 view .LVU3424
.LBB1130:
.LBB1090:
	.loc 4 426 5 is_stmt 0 view .LVU3425
	imulq	$801750719, %r11, %rdx
.LVL770:
	.loc 4 426 5 view .LVU3426
.LBE1090:
.LBE1130:
	.loc 4 418 5 view .LVU3427
	addl	%eax, %r10d
.LVL771:
	.loc 4 418 5 is_stmt 1 view .LVU3428
	.loc 4 418 5 view .LVU3429
	.loc 4 418 5 view .LVU3430
	.loc 4 418 5 view .LVU3431
	.loc 4 418 5 view .LVU3432
	.loc 4 418 20 view .LVU3433
	.loc 4 419 5 view .LVU3434
	.loc 4 419 5 view .LVU3435
	.loc 4 419 5 view .LVU3436
	.loc 4 419 5 view .LVU3437
	.loc 4 419 5 view .LVU3438
	.loc 4 419 22 view .LVU3439
	.loc 4 420 5 view .LVU3440
	.loc 4 420 5 view .LVU3441
	.loc 4 421 5 view .LVU3442
	.loc 4 425 5 view .LVU3443
	.loc 4 425 14 view .LVU3444
	.loc 4 425 22 view .LVU3445
.LBB1131:
	.loc 4 426 5 view .LVU3446
.LBB1091:
	.loc 4 426 5 view .LVU3447
	.loc 4 426 5 view .LVU3448
	.loc 4 426 5 view .LVU3449
	.loc 4 426 5 is_stmt 0 view .LVU3450
.LBE1091:
	.loc 4 426 5 is_stmt 1 view .LVU3451
	movl	28(%rsp), %eax
	addl	%edx, %eax
	movl	%eax, 28(%rsp)
	setc	%al
.LBB1092:
	shrq	$32, %rdx
.LVL772:
	.loc 4 426 5 is_stmt 0 view .LVU3452
	movzbl	%al, %eax
.LVL773:
	.loc 4 426 5 view .LVU3453
.LBE1092:
	.loc 4 426 5 is_stmt 1 view .LVU3454
	.loc 4 426 5 view .LVU3455
	.loc 4 426 5 view .LVU3456
	.loc 4 426 5 view .LVU3457
.LBE1131:
	.loc 4 426 37 view .LVU3458
	.loc 4 427 5 view .LVU3459
	.loc 4 427 5 view .LVU3460
	.loc 4 427 5 view .LVU3461
	.loc 4 427 5 view .LVU3462
	.loc 4 427 5 view .LVU3463
	.loc 4 427 21 view .LVU3464
	.loc 4 428 5 view .LVU3465
	addb	$-1, %al
	adcl	%ebp, %edx
.LVL774:
	.loc 4 428 5 view .LVU3466
	.loc 4 428 5 view .LVU3467
	.loc 4 428 5 view .LVU3468
	.loc 4 428 5 view .LVU3469
	.loc 4 428 5 view .LVU3470
	.loc 4 428 20 view .LVU3471
.LBB1132:
	.loc 4 429 5 view .LVU3472
.LBB1114:
	.loc 4 429 5 view .LVU3473
	imulq	$801750719, %rsi, %r8
.LVL775:
	.loc 4 429 5 view .LVU3474
	.loc 4 429 5 view .LVU3475
	.loc 4 429 5 is_stmt 0 view .LVU3476
.LBE1114:
	.loc 4 429 5 is_stmt 1 view .LVU3477
	xorl	%ebx, %ebx
.LVL776:
	.loc 4 429 5 is_stmt 0 view .LVU3478
	movl	%edx, %r9d
.LVL777:
	.loc 4 429 5 view .LVU3479
	addl	%r8d, %r9d
	setc	%bl
.LVL778:
	.loc 4 429 5 is_stmt 1 view .LVU3480
	.loc 4 429 5 view .LVU3481
	.loc 4 429 5 view .LVU3482
	.loc 4 429 5 view .LVU3483
	.loc 4 429 5 view .LVU3484
.LBE1132:
	.loc 4 429 32 view .LVU3485
.LBB1133:
	.loc 4 430 5 view .LVU3486
.LBB1134:
	.loc 4 430 5 view .LVU3487
	imulq	$1076732275, %r11, %rdi
.LVL779:
	.loc 4 430 5 view .LVU3488
	movq	%rdi, %rax
	shrq	$32, %rax
.LBE1134:
.LBE1133:
	.loc 4 428 5 is_stmt 0 view .LVU3489
	cmpl	%ebp, %edx
	movl	16(%rsp), %edx
.LVL780:
	.loc 4 428 5 view .LVU3490
	adcl	%edx, %eax
.LVL781:
.LBB1136:
.LBB1135:
	.loc 4 430 5 is_stmt 1 view .LVU3491
	.loc 4 430 5 is_stmt 0 view .LVU3492
.LBE1135:
	.loc 4 430 5 is_stmt 1 view .LVU3493
	addl	%edi, %r9d
.LVL782:
	.loc 4 430 5 is_stmt 0 view .LVU3494
	setc	%dl
.LBE1136:
.LBB1137:
.LBB1115:
	.loc 4 429 5 view .LVU3495
	shrq	$32, %r8
.LVL783:
	.loc 4 429 5 view .LVU3496
	movl	%r9d, 32(%rsp)
.LVL784:
	.loc 4 429 5 view .LVU3497
	xorl	%r9d, %r9d
.LBE1115:
.LBE1137:
.LBB1138:
	.loc 4 432 5 view .LVU3498
	addl	%r8d, %eax
	movzbl	%dl, %edx
.LVL785:
	.loc 4 432 5 view .LVU3499
.LBE1138:
.LBB1139:
	.loc 4 430 5 is_stmt 1 view .LVU3500
	.loc 4 430 5 view .LVU3501
	.loc 4 430 5 view .LVU3502
	.loc 4 430 5 view .LVU3503
	.loc 4 430 5 view .LVU3504
.LBE1139:
	.loc 4 430 32 view .LVU3505
	.loc 4 431 5 view .LVU3506
	.loc 4 431 5 view .LVU3507
	.loc 4 431 5 view .LVU3508
	.loc 4 431 5 view .LVU3509
	.loc 4 431 16 view .LVU3510
.LBB1140:
	.loc 4 432 5 view .LVU3511
	.loc 4 432 5 view .LVU3512
	addl	%ebx, %eax
.LBE1140:
.LBB1141:
.LBB1126:
	.loc 4 433 5 is_stmt 0 view .LVU3513
	movl	%r14d, %ebx
.LVL786:
	.loc 4 433 5 view .LVU3514
	imulq	$801750719, %rbx, %rdi
.LVL787:
	.loc 4 433 5 view .LVU3515
.LBE1126:
.LBE1141:
.LBB1142:
	.loc 4 432 5 view .LVU3516
	addl	%edx, %eax
.LVL788:
	.loc 4 432 5 is_stmt 1 view .LVU3517
	.loc 4 432 5 view .LVU3518
	.loc 4 432 5 view .LVU3519
	.loc 4 432 5 is_stmt 0 view .LVU3520
.LBE1142:
	.loc 4 432 15 is_stmt 1 view .LVU3521
.LBB1143:
	.loc 4 433 5 view .LVU3522
.LBB1127:
	.loc 4 433 5 view .LVU3523
	.loc 4 433 5 view .LVU3524
	.loc 4 433 5 view .LVU3525
	.loc 4 433 5 is_stmt 0 view .LVU3526
.LBE1127:
	.loc 4 433 5 is_stmt 1 view .LVU3527
	movl	%eax, %r8d
	addl	%edi, %r8d
	setc	%r9b
.LVL789:
	.loc 4 433 5 view .LVU3528
	.loc 4 433 5 view .LVU3529
	.loc 4 433 5 view .LVU3530
	.loc 4 433 5 view .LVU3531
	.loc 4 433 5 view .LVU3532
.LBE1143:
	.loc 4 433 33 view .LVU3533
.LBB1144:
	.loc 4 434 5 view .LVU3534
.LBB1145:
	.loc 4 434 5 view .LVU3535
	imulq	$1076732275, %rsi, %rdx
.LVL790:
	.loc 4 434 5 view .LVU3536
	.loc 4 434 5 view .LVU3537
	.loc 4 434 5 is_stmt 0 view .LVU3538
.LBE1145:
	.loc 4 434 5 is_stmt 1 view .LVU3539
	xorl	%r12d, %r12d
.LVL791:
	.loc 4 434 5 is_stmt 0 view .LVU3540
	addl	%edx, %r8d
.LVL792:
	.loc 4 434 5 view .LVU3541
	setc	%r12b
.LVL793:
	.loc 4 434 5 is_stmt 1 view .LVU3542
	.loc 4 434 5 view .LVU3543
	.loc 4 434 5 view .LVU3544
	.loc 4 434 5 view .LVU3545
	.loc 4 434 5 view .LVU3546
.LBE1144:
	.loc 4 434 32 view .LVU3547
.LBB1147:
	.loc 4 435 5 view .LVU3548
.LBB1148:
	.loc 4 435 5 view .LVU3549
	imulq	$1354194884, %r11, %rbp
.LVL794:
	.loc 4 435 5 view .LVU3550
.LBE1148:
.LBE1147:
.LBB1151:
.LBB1146:
	.loc 4 434 5 is_stmt 0 view .LVU3551
	shrq	$32, %rdx
.LVL795:
	.loc 4 434 5 view .LVU3552
.LBE1146:
.LBE1151:
.LBB1152:
.LBB1128:
	.loc 4 433 5 view .LVU3553
	shrq	$32, %rdi
.LVL796:
	.loc 4 433 5 view .LVU3554
.LBE1128:
.LBE1152:
.LBB1153:
.LBB1149:
	.loc 4 435 5 view .LVU3555
	movq	%rbp, %r13
	shrq	$32, %r13
	addl	%ecx, %r13d
	addl	%r13d, %edx
.LBE1149:
.LBE1153:
.LBB1154:
	.loc 4 432 5 view .LVU3556
	cmpl	16(%rsp), %eax
	adcl	%edi, %edx
.LVL797:
	.loc 4 432 5 view .LVU3557
.LBE1154:
.LBB1155:
.LBB1150:
	.loc 4 435 5 is_stmt 1 view .LVU3558
	.loc 4 435 5 is_stmt 0 view .LVU3559
.LBE1150:
	.loc 4 435 5 is_stmt 1 view .LVU3560
	addl	%ebp, %r8d
.LVL798:
	.loc 4 435 5 is_stmt 0 view .LVU3561
	setc	%al
.LVL799:
	.loc 4 435 5 view .LVU3562
.LBE1155:
.LBB1156:
	.loc 4 437 5 view .LVU3563
	addl	%edx, %r9d
.LVL800:
	.loc 4 437 5 view .LVU3564
.LBE1156:
.LBB1157:
.LBB1158:
	.loc 4 438 5 view .LVU3565
	movl	%r10d, %edx
	movl	%r8d, 16(%rsp)
.LVL801:
	.loc 4 438 5 view .LVU3566
	imulq	$801750719, %rdx, %rdi
.LBE1158:
.LBE1157:
.LBB1161:
	.loc 4 437 5 view .LVU3567
	addl	%r12d, %r9d
	movzbl	%al, %eax
.LVL802:
	.loc 4 437 5 view .LVU3568
.LBE1161:
.LBB1162:
	.loc 4 435 5 is_stmt 1 view .LVU3569
	.loc 4 435 5 view .LVU3570
	.loc 4 435 5 view .LVU3571
	.loc 4 435 5 view .LVU3572
	.loc 4 435 5 view .LVU3573
.LBE1162:
	.loc 4 435 32 view .LVU3574
	.loc 4 436 5 view .LVU3575
	.loc 4 436 5 view .LVU3576
	.loc 4 436 5 view .LVU3577
	.loc 4 436 5 view .LVU3578
	.loc 4 436 16 view .LVU3579
.LBB1163:
	.loc 4 437 5 view .LVU3580
	.loc 4 437 5 view .LVU3581
	xorl	%r14d, %r14d
.LVL803:
	.loc 4 437 5 is_stmt 0 view .LVU3582
	addl	%eax, %r9d
.LVL804:
	.loc 4 437 5 is_stmt 1 view .LVU3583
	.loc 4 437 5 view .LVU3584
	.loc 4 437 5 view .LVU3585
	.loc 4 437 5 is_stmt 0 view .LVU3586
.LBE1163:
	.loc 4 437 15 is_stmt 1 view .LVU3587
.LBB1164:
	.loc 4 438 5 view .LVU3588
.LBB1159:
	.loc 4 438 5 view .LVU3589
	.loc 4 438 5 view .LVU3590
	.loc 4 438 5 view .LVU3591
	.loc 4 438 5 is_stmt 0 view .LVU3592
.LBE1159:
	.loc 4 438 5 is_stmt 1 view .LVU3593
	movl	%r9d, %r8d
.LVL805:
	.loc 4 438 5 is_stmt 0 view .LVU3594
	addl	%edi, %r8d
	setc	%r14b
.LVL806:
	.loc 4 438 5 is_stmt 1 view .LVU3595
	.loc 4 438 5 view .LVU3596
	.loc 4 438 5 view .LVU3597
	.loc 4 438 5 view .LVU3598
	.loc 4 438 5 view .LVU3599
.LBE1164:
	.loc 4 438 33 view .LVU3600
.LBB1165:
	.loc 4 439 5 view .LVU3601
.LBB1166:
	.loc 4 439 5 view .LVU3602
	imulq	$1076732275, %rbx, %rbp
.LVL807:
	.loc 4 439 5 view .LVU3603
	.loc 4 439 5 view .LVU3604
	.loc 4 439 5 is_stmt 0 view .LVU3605
.LBE1166:
	.loc 4 439 5 is_stmt 1 view .LVU3606
	xorl	%r13d, %r13d
	addl	%ebp, %r8d
.LVL808:
	.loc 4 439 5 is_stmt 0 view .LVU3607
	setc	%r13b
.LVL809:
	.loc 4 439 5 is_stmt 1 view .LVU3608
	.loc 4 439 5 view .LVU3609
	.loc 4 439 5 view .LVU3610
	.loc 4 439 5 view .LVU3611
	.loc 4 439 5 view .LVU3612
.LBE1165:
	.loc 4 439 33 view .LVU3613
.LBB1168:
	.loc 4 440 5 view .LVU3614
.LBB1169:
	.loc 4 440 5 view .LVU3615
	imulq	$1354194884, %rsi, %r12
.LVL810:
	.loc 4 440 5 view .LVU3616
.LBE1169:
.LBE1168:
.LBB1172:
.LBB1167:
	.loc 4 439 5 is_stmt 0 view .LVU3617
	shrq	$32, %rbp
.LVL811:
	.loc 4 439 5 view .LVU3618
.LBE1167:
.LBE1172:
.LBB1173:
.LBB1160:
	.loc 4 438 5 view .LVU3619
	shrq	$32, %rdi
.LVL812:
	.loc 4 438 5 view .LVU3620
.LBE1160:
.LBE1173:
.LBB1174:
.LBB1170:
	.loc 4 440 5 view .LVU3621
	movq	%r12, %rax
.LVL813:
	.loc 4 440 5 view .LVU3622
	shrq	$32, %rax
	addl	%ebp, %eax
.LBE1170:
.LBE1174:
.LBB1175:
	.loc 4 437 5 view .LVU3623
	cmpl	%ecx, %r9d
	adcl	%edi, %eax
	addl	%r14d, %eax
.LVL814:
	.loc 4 437 5 view .LVU3624
.LBE1175:
.LBB1176:
.LBB1171:
	.loc 4 440 5 is_stmt 1 view .LVU3625
	.loc 4 440 5 is_stmt 0 view .LVU3626
.LBE1171:
	.loc 4 440 5 is_stmt 1 view .LVU3627
	addl	%r12d, %r8d
.LVL815:
	.loc 4 440 5 view .LVU3628
	.loc 4 440 5 view .LVU3629
	.loc 4 440 5 is_stmt 0 discriminator 4 view .LVU3630
	adcl	%r13d, %eax
.LVL816:
	.loc 4 440 5 is_stmt 1 view .LVU3631
	.loc 4 440 5 view .LVU3632
	.loc 4 440 5 view .LVU3633
.LBE1176:
	.loc 4 440 32 view .LVU3634
.LBB1177:
	.loc 4 441 5 view .LVU3635
.LBB1178:
	.loc 4 441 5 view .LVU3636
	imulq	$1162945305, %r11, %r11
.LVL817:
	.loc 4 441 5 view .LVU3637
	movq	%r11, %rdi
	shrq	$32, %rdi
.LBE1178:
	addl	%r11d, %r8d
.LVL818:
.LBB1179:
	.loc 4 441 5 is_stmt 0 view .LVU3638
	movq	%rdi, %r9
.LVL819:
	.loc 4 441 5 is_stmt 1 view .LVU3639
	.loc 4 441 5 is_stmt 0 view .LVU3640
.LBE1179:
	.loc 4 441 5 is_stmt 1 view .LVU3641
	.loc 4 441 5 view .LVU3642
	.loc 4 441 5 view .LVU3643
.LBE1177:
	.loc 4 476 13 is_stmt 0 view .LVU3644
	movl	%r8d, %r8d
.LBB1180:
	.loc 4 441 5 discriminator 4 view .LVU3645
	adcl	$0, %r9d
	xorl	%edi, %edi
	addl	%r9d, %eax
.LVL820:
	.loc 4 441 5 is_stmt 1 view .LVU3646
	.loc 4 441 5 view .LVU3647
	.loc 4 441 5 view .LVU3648
.LBE1180:
	.loc 4 441 32 view .LVU3649
	.loc 4 442 5 view .LVU3650
	.loc 4 442 5 view .LVU3651
	.loc 4 442 5 view .LVU3652
	.loc 4 442 5 view .LVU3653
	.loc 4 442 16 view .LVU3654
.LBB1181:
	.loc 4 443 5 view .LVU3655
	.loc 4 443 5 view .LVU3656
	setc	%dil
	xorl	%r14d, %r14d
.LVL821:
	.loc 4 443 5 is_stmt 0 view .LVU3657
	addl	40(%rsp), %eax
.LVL822:
	.loc 4 443 5 view .LVU3658
	setc	%r14b
.LVL823:
	.loc 4 443 5 is_stmt 1 view .LVU3659
	.loc 4 443 5 view .LVU3660
	.loc 4 443 5 view .LVU3661
	.loc 4 443 5 is_stmt 0 view .LVU3662
.LBE1181:
	.loc 4 443 15 is_stmt 1 view .LVU3663
.LBB1182:
	.loc 4 444 5 view .LVU3664
.LBB1183:
	.loc 4 444 5 view .LVU3665
	.loc 4 444 5 view .LVU3666
	.loc 4 444 5 view .LVU3667
	.loc 4 444 5 is_stmt 0 view .LVU3668
.LBE1183:
	.loc 4 444 5 is_stmt 1 view .LVU3669
.LBB1184:
	cmpl	%r15d, %r10d
	movl	%edi, 12(%rsp)
.LVL824:
	.loc 4 444 5 is_stmt 0 view .LVU3670
	sbbl	%r9d, %r9d
	xorl	%r13d, %r13d
.LVL825:
	.loc 4 444 5 view .LVU3671
	andl	$801750719, %r9d
	addl	%r9d, %eax
.LVL826:
	.loc 4 444 5 view .LVU3672
	setc	%r13b
.LVL827:
	.loc 4 444 5 view .LVU3673
.LBE1184:
	.loc 4 444 5 is_stmt 1 view .LVU3674
	.loc 4 444 5 view .LVU3675
	.loc 4 444 5 view .LVU3676
	.loc 4 444 5 view .LVU3677
	.loc 4 444 5 view .LVU3678
.LBE1182:
	.loc 4 444 33 view .LVU3679
.LBB1185:
	.loc 4 445 5 view .LVU3680
.LBB1186:
	.loc 4 445 5 view .LVU3681
	imulq	$1076732275, %rdx, %rdi
.LVL828:
	.loc 4 445 5 view .LVU3682
	.loc 4 445 5 view .LVU3683
	.loc 4 445 5 is_stmt 0 view .LVU3684
.LBE1186:
	.loc 4 445 5 is_stmt 1 view .LVU3685
	xorl	%r11d, %r11d
.LVL829:
	.loc 4 445 5 is_stmt 0 view .LVU3686
	addl	%edi, %eax
.LVL830:
	.loc 4 445 5 view .LVU3687
	setc	%r11b
.LVL831:
	.loc 4 445 5 is_stmt 1 view .LVU3688
	.loc 4 445 5 view .LVU3689
	.loc 4 445 5 view .LVU3690
	.loc 4 445 5 view .LVU3691
	.loc 4 445 5 view .LVU3692
.LBE1185:
	.loc 4 445 33 view .LVU3693
.LBB1188:
	.loc 4 446 5 view .LVU3694
.LBB1189:
	.loc 4 446 5 view .LVU3695
	imulq	$1354194884, %rbx, %r9
.LVL832:
	.loc 4 446 5 view .LVU3696
	.loc 4 446 5 view .LVU3697
	.loc 4 446 5 is_stmt 0 view .LVU3698
.LBE1189:
	.loc 4 446 5 is_stmt 1 view .LVU3699
	xorl	%r12d, %r12d
.LVL833:
	.loc 4 446 5 is_stmt 0 view .LVU3700
	addl	%r9d, %eax
.LVL834:
	.loc 4 446 5 view .LVU3701
	setc	%r12b
.LVL835:
	.loc 4 446 5 is_stmt 1 view .LVU3702
	.loc 4 446 5 view .LVU3703
	.loc 4 446 5 view .LVU3704
	.loc 4 446 5 view .LVU3705
	.loc 4 446 5 view .LVU3706
.LBE1188:
	.loc 4 446 33 view .LVU3707
.LBB1191:
	.loc 4 447 5 view .LVU3708
.LBB1192:
	.loc 4 447 5 view .LVU3709
	imulq	$1162945305, %rsi, %rsi
.LVL836:
	.loc 4 447 5 view .LVU3710
.LBE1192:
.LBE1191:
.LBB1194:
.LBB1190:
	.loc 4 446 5 is_stmt 0 view .LVU3711
	shrq	$32, %r9
.LVL837:
	.loc 4 446 5 view .LVU3712
.LBE1190:
.LBE1194:
.LBB1195:
.LBB1187:
	.loc 4 445 5 view .LVU3713
	shrq	$32, %rdi
.LVL838:
	.loc 4 445 5 view .LVU3714
.LBE1187:
.LBE1195:
.LBB1196:
.LBB1193:
	.loc 4 447 5 view .LVU3715
	movq	%rsi, %rbp
	shrq	$32, %rbp
	addl	20(%rsp), %ebp
	addl	%ebp, %r9d
	addl	%edi, %r9d
	addl	12(%rsp), %r9d
	addl	%r14d, %r9d
	addl	%r13d, %r9d
.LVL839:
	.loc 4 447 5 is_stmt 1 view .LVU3716
	.loc 4 447 5 is_stmt 0 view .LVU3717
.LBE1193:
	.loc 4 447 5 is_stmt 1 view .LVU3718
	addl	%esi, %eax
.LVL840:
	.loc 4 447 5 is_stmt 0 view .LVU3719
	setc	%sil
.LVL841:
	.loc 4 447 5 view .LVU3720
	addl	%r9d, %r11d
.LVL842:
	.loc 4 447 5 view .LVU3721
	addl	%r12d, %r11d
	movzbl	%sil, %esi
.LVL843:
	.loc 4 447 5 is_stmt 1 view .LVU3722
	.loc 4 447 5 view .LVU3723
	.loc 4 447 5 view .LVU3724
	.loc 4 447 5 view .LVU3725
	.loc 4 447 5 view .LVU3726
.LBE1196:
	.loc 4 447 32 view .LVU3727
.LBB1197:
	.loc 4 448 5 view .LVU3728
	.loc 4 448 5 view .LVU3729
	addl	(%rsp), %eax
.LVL844:
	.loc 4 448 5 view .LVU3730
	.loc 4 448 5 view .LVU3731
	.loc 4 448 5 view .LVU3732
.LBE1197:
	.loc 4 448 15 view .LVU3733
	.loc 4 449 5 view .LVU3734
	.loc 4 449 5 view .LVU3735
	.loc 4 449 5 view .LVU3736
	.loc 4 449 5 view .LVU3737
	.loc 4 449 16 view .LVU3738
.LBB1198:
	.loc 4 450 5 view .LVU3739
	.loc 4 450 5 view .LVU3740
	movl	24(%rsp), %r12d
.LVL845:
	.loc 4 450 5 is_stmt 0 view .LVU3741
	adcl	%esi, %r11d
.LVL846:
	.loc 4 450 5 is_stmt 1 view .LVU3742
	.loc 4 450 5 view .LVU3743
	.loc 4 450 5 view .LVU3744
	.loc 4 450 5 is_stmt 0 view .LVU3745
.LBE1198:
	.loc 4 450 15 is_stmt 1 view .LVU3746
.LBB1199:
	.loc 4 451 5 view .LVU3747
.LBB1200:
	.loc 4 451 5 view .LVU3748
	.loc 4 451 5 view .LVU3749
	.loc 4 451 5 view .LVU3750
	.loc 4 451 5 is_stmt 0 view .LVU3751
.LBE1200:
	.loc 4 451 5 is_stmt 1 view .LVU3752
.LBB1201:
	cmpl	%r15d, %r10d
.LBE1201:
.LBE1199:
	.loc 4 478 13 is_stmt 0 view .LVU3753
	movl	%eax, %eax
.LBB1203:
.LBB1202:
	.loc 4 451 5 view .LVU3754
	sbbl	%ecx, %ecx
	.loc 4 451 5 view .LVU3755
	xorl	%r9d, %r9d
	andl	$1076732275, %ecx
	addl	%r11d, %ecx
	setc	%r9b
.LVL847:
	.loc 4 451 5 view .LVU3756
.LBE1202:
	.loc 4 451 5 is_stmt 1 view .LVU3757
	.loc 4 451 5 view .LVU3758
	.loc 4 451 5 view .LVU3759
	.loc 4 451 5 view .LVU3760
	.loc 4 451 5 view .LVU3761
.LBE1203:
	.loc 4 451 33 view .LVU3762
.LBB1204:
	.loc 4 452 5 view .LVU3763
.LBB1205:
	.loc 4 452 5 view .LVU3764
	imulq	$1354194884, %rdx, %rsi
.LVL848:
	.loc 4 452 5 view .LVU3765
	.loc 4 452 5 view .LVU3766
	.loc 4 452 5 is_stmt 0 view .LVU3767
.LBE1205:
	.loc 4 452 5 is_stmt 1 view .LVU3768
	xorl	%edi, %edi
	addl	%esi, %ecx
.LVL849:
	.loc 4 452 5 is_stmt 0 view .LVU3769
	setc	%dil
.LVL850:
	.loc 4 452 5 is_stmt 1 view .LVU3770
	.loc 4 452 5 view .LVU3771
	.loc 4 452 5 view .LVU3772
	.loc 4 452 5 view .LVU3773
	.loc 4 452 5 view .LVU3774
.LBE1204:
	.loc 4 452 33 view .LVU3775
.LBB1207:
	.loc 4 453 5 view .LVU3776
.LBB1208:
	.loc 4 453 5 view .LVU3777
	imulq	$1162945305, %rbx, %rbx
.LVL851:
	.loc 4 453 5 view .LVU3778
.LBE1208:
.LBE1207:
.LBB1211:
.LBB1206:
	.loc 4 452 5 is_stmt 0 view .LVU3779
	shrq	$32, %rsi
.LVL852:
	.loc 4 452 5 view .LVU3780
.LBE1206:
.LBE1211:
.LBB1212:
.LBB1209:
	.loc 4 453 5 view .LVU3781
	movq	%rbx, %rbp
	shrq	$32, %rbp
	addl	%r12d, %ebp
.LBE1209:
.LBE1212:
.LBB1213:
	.loc 4 450 5 view .LVU3782
	cmpl	20(%rsp), %r11d
	adcl	%ebp, %esi
.LVL853:
	.loc 4 450 5 view .LVU3783
.LBE1213:
.LBB1214:
.LBB1210:
	.loc 4 453 5 is_stmt 1 view .LVU3784
	.loc 4 453 5 is_stmt 0 view .LVU3785
.LBE1210:
	.loc 4 453 5 is_stmt 1 view .LVU3786
	xorl	%r11d, %r11d
.LVL854:
	.loc 4 453 5 is_stmt 0 view .LVU3787
	addl	%ebx, %ecx
.LVL855:
	.loc 4 453 5 view .LVU3788
	setc	%r11b
.LVL856:
	.loc 4 453 5 is_stmt 1 view .LVU3789
	.loc 4 453 5 view .LVU3790
	addl	%esi, %r9d
.LVL857:
	.loc 4 453 5 is_stmt 0 view .LVU3791
	addl	%edi, %r9d
	.loc 4 453 5 is_stmt 1 view .LVU3792
	.loc 4 453 5 view .LVU3793
	.loc 4 453 5 view .LVU3794
.LBE1214:
	.loc 4 453 33 view .LVU3795
.LBB1215:
	.loc 4 454 5 view .LVU3796
	.loc 4 454 5 view .LVU3797
	addl	4(%rsp), %ecx
.LVL858:
	.loc 4 454 5 view .LVU3798
	.loc 4 454 5 view .LVU3799
	.loc 4 454 5 view .LVU3800
.LBE1215:
	.loc 4 454 15 view .LVU3801
	.loc 4 455 5 view .LVU3802
	.loc 4 455 5 view .LVU3803
	.loc 4 455 5 view .LVU3804
	.loc 4 455 5 view .LVU3805
	.loc 4 455 16 view .LVU3806
.LBB1216:
	.loc 4 456 5 view .LVU3807
	.loc 4 456 5 view .LVU3808
	adcl	%r11d, %r9d
.LVL859:
	.loc 4 456 5 view .LVU3809
	.loc 4 456 5 view .LVU3810
	.loc 4 456 5 view .LVU3811
	.loc 4 456 5 is_stmt 0 view .LVU3812
.LBE1216:
	.loc 4 456 15 is_stmt 1 view .LVU3813
.LBB1217:
	.loc 4 457 5 view .LVU3814
.LBB1218:
	.loc 4 457 5 view .LVU3815
	.loc 4 457 5 view .LVU3816
	.loc 4 457 5 view .LVU3817
	.loc 4 457 5 is_stmt 0 view .LVU3818
.LBE1218:
	.loc 4 457 5 is_stmt 1 view .LVU3819
.LBB1219:
	cmpl	%r15d, %r10d
	.loc 4 457 5 is_stmt 0 view .LVU3820
.LBE1219:
.LBE1217:
	.loc 4 480 7 view .LVU3821
	movl	%ecx, %ecx
.LBB1221:
.LBB1220:
	.loc 4 457 5 view .LVU3822
	sbbl	%r11d, %r11d
.LVL860:
	.loc 4 457 5 view .LVU3823
	xorl	%ebx, %ebx
.LVL861:
	.loc 4 457 5 view .LVU3824
	andl	$1354194884, %r11d
	.loc 4 457 5 view .LVU3825
	addl	%r9d, %r11d
	setc	%bl
.LVL862:
	.loc 4 457 5 view .LVU3826
.LBE1220:
	.loc 4 457 5 is_stmt 1 view .LVU3827
	.loc 4 457 5 view .LVU3828
	.loc 4 457 5 view .LVU3829
	.loc 4 457 5 view .LVU3830
	.loc 4 457 5 view .LVU3831
.LBE1221:
	.loc 4 457 33 view .LVU3832
.LBB1222:
	.loc 4 458 5 view .LVU3833
.LBB1223:
	.loc 4 458 5 view .LVU3834
	imulq	$1162945305, %rdx, %rdx
.LVL863:
	.loc 4 458 5 view .LVU3835
	.loc 4 458 5 view .LVU3836
	.loc 4 458 5 is_stmt 0 view .LVU3837
.LBE1223:
	.loc 4 458 5 is_stmt 1 view .LVU3838
.LBB1224:
	movq	%rdx, %rdi
.LVL864:
	.loc 4 458 5 is_stmt 0 view .LVU3839
	shrq	$32, %rdi
	addl	%r11d, %edx
.LVL865:
	.loc 4 458 5 view .LVU3840
	movq	%rdi, %rsi
	movl	44(%rsp), %edi
	setc	%r11b
.LVL866:
	.loc 4 458 5 view .LVU3841
.LBE1224:
.LBE1222:
.LBB1225:
	.loc 4 456 5 view .LVU3842
	cmpl	%r12d, %r9d
	movzbl	%r11b, %r11d
.LVL867:
	.loc 4 456 5 view .LVU3843
.LBE1225:
.LBB1226:
	.loc 4 458 5 is_stmt 1 view .LVU3844
	.loc 4 458 5 view .LVU3845
	adcl	%edi, %esi
	addl	%ebx, %esi
.LVL868:
	.loc 4 458 5 view .LVU3846
	.loc 4 458 5 view .LVU3847
	.loc 4 458 5 view .LVU3848
.LBE1226:
	.loc 4 458 33 view .LVU3849
.LBB1227:
	.loc 4 459 5 view .LVU3850
	.loc 4 459 5 view .LVU3851
	addl	8(%rsp), %edx
.LVL869:
	.loc 4 459 5 view .LVU3852
	.loc 4 459 5 view .LVU3853
	.loc 4 459 5 view .LVU3854
.LBE1227:
	.loc 4 459 16 view .LVU3855
	.loc 4 460 5 view .LVU3856
	.loc 4 460 5 view .LVU3857
	.loc 4 460 5 view .LVU3858
	.loc 4 460 5 view .LVU3859
	.loc 4 460 16 view .LVU3860
	.loc 4 461 5 view .LVU3861
	adcl	%r11d, %esi
.LVL870:
	.loc 4 461 5 view .LVU3862
	.loc 4 461 5 view .LVU3863
	.loc 4 461 5 view .LVU3864
	.loc 4 461 5 view .LVU3865
	.loc 4 461 5 view .LVU3866
	.loc 4 461 20 view .LVU3867
.LBB1228:
	.loc 4 462 5 view .LVU3868
.LBB1229:
	.loc 4 462 5 view .LVU3869
	.loc 4 462 5 view .LVU3870
	.loc 4 462 5 view .LVU3871
	.loc 4 462 5 is_stmt 0 view .LVU3872
.LBE1229:
	.loc 4 462 5 is_stmt 1 view .LVU3873
.LBB1230:
	cmpl	%r15d, %r10d
.LVL871:
	.loc 4 462 5 is_stmt 0 view .LVU3874
.LBE1230:
.LBE1228:
	.loc 4 482 7 view .LVU3875
	movl	%edx, %edx
.LBB1232:
.LBB1231:
	.loc 4 462 5 view .LVU3876
	sbbl	%ebx, %ebx
.LVL872:
	.loc 4 462 5 view .LVU3877
	xorl	%r9d, %r9d
.LVL873:
	.loc 4 462 5 view .LVU3878
	andl	$1162945305, %ebx
	.loc 4 462 5 view .LVU3879
	addl	%esi, %ebx
	setc	%r9b
.LVL874:
	.loc 4 462 5 view .LVU3880
.LBE1231:
	.loc 4 462 5 is_stmt 1 view .LVU3881
	.loc 4 462 5 view .LVU3882
.LBE1232:
	.loc 4 461 5 is_stmt 0 view .LVU3883
	cmpl	%edi, %esi
	setb	%dil
.LVL875:
	.loc 4 418 5 view .LVU3884
	cmpl	%r15d, %r10d
	.loc 4 461 5 view .LVU3885
	movzbl	%dil, %edi
	adcl	$0, %edi
.LVL876:
.LBB1233:
	.loc 4 462 5 is_stmt 1 view .LVU3886
	.loc 4 462 5 view .LVU3887
.LBE1233:
	.loc 4 462 38 view .LVU3888
	.loc 4 463 5 view .LVU3889
	addl	%r10d, %ebx
.LVL877:
	.loc 4 463 5 view .LVU3890
	.loc 4 463 5 view .LVU3891
	.loc 4 463 5 view .LVU3892
	.loc 4 463 5 view .LVU3893
	.loc 4 463 5 view .LVU3894
	.loc 4 463 21 view .LVU3895
	.loc 4 464 5 view .LVU3896
	.loc 4 464 5 view .LVU3897
	.loc 4 464 5 view .LVU3898
	.loc 4 464 5 view .LVU3899
	.loc 4 464 5 view .LVU3900
	.loc 4 464 21 view .LVU3901
	.loc 4 465 5 view .LVU3902
	.loc 4 466 5 view .LVU3903
	.loc 4 466 5 view .LVU3904
	.loc 4 470 5 view .LVU3905
	.loc 4 465 8 is_stmt 0 view .LVU3906
	adcl	%r9d, %edi
.LVL878:
	.loc 4 470 12 view .LVU3907
	movl	28(%rsp), %r9d
.LVL879:
	.loc 4 484 7 view .LVU3908
	movl	%ebx, %ebx
	.loc 4 470 40 view .LVU3909
	imulq	$801750719, %rdi, %r10
.LVL880:
	.loc 4 478 13 view .LVU3910
	addq	%rdi, %rax
.LVL881:
	.loc 4 472 41 view .LVU3911
	imulq	$1076732275, %rdi, %r11
	.loc 4 470 7 view .LVU3912
	addq	%r9, %r10
.LVL882:
	.loc 4 471 5 is_stmt 1 view .LVU3913
	.loc 4 471 33 view .LVU3914
	.loc 4 472 13 is_stmt 0 view .LVU3915
	movl	32(%rsp), %r9d
	.loc 4 471 35 view .LVU3916
	movq	%r10, %rsi
	shrq	$32, %rsi
.LVL883:
	.loc 4 472 5 is_stmt 1 view .LVU3917
	.loc 4 472 13 is_stmt 0 view .LVU3918
	addq	%r9, %r11
	.loc 4 474 41 view .LVU3919
	imulq	$1354194884, %rdi, %r9
	.loc 4 472 7 view .LVU3920
	addq	%rsi, %r11
.LVL884:
	.loc 4 473 5 is_stmt 1 view .LVU3921
	.loc 4 473 33 view .LVU3922
	.loc 4 474 13 is_stmt 0 view .LVU3923
	movl	16(%rsp), %esi
	.loc 4 473 35 view .LVU3924
	movq	%r11, %rbp
	shrq	$32, %rbp
.LVL885:
	.loc 4 474 5 is_stmt 1 view .LVU3925
	.loc 4 474 13 is_stmt 0 view .LVU3926
	addq	%rsi, %r9
	.loc 4 476 41 view .LVU3927
	imulq	$1162945305, %rdi, %rsi
	.loc 4 474 7 view .LVU3928
	addq	%rbp, %r9
.LVL886:
	.loc 4 475 5 is_stmt 1 view .LVU3929
	.loc 4 475 33 view .LVU3930
	.loc 4 475 35 is_stmt 0 view .LVU3931
	movq	%r9, %rbp
	shrq	$32, %rbp
.LVL887:
	.loc 4 476 5 is_stmt 1 view .LVU3932
	.loc 4 476 13 is_stmt 0 view .LVU3933
	addq	%r8, %rsi
	.loc 4 476 7 view .LVU3934
	addq	%rbp, %rsi
.LVL888:
	.loc 4 477 5 is_stmt 1 view .LVU3935
	.loc 4 477 33 view .LVU3936
	.loc 4 477 35 is_stmt 0 view .LVU3937
	movq	%rsi, %r8
	shrq	$32, %r8
.LVL889:
	.loc 4 478 5 is_stmt 1 view .LVU3938
	.loc 4 478 7 is_stmt 0 view .LVU3939
	addq	%r8, %rax
.LVL890:
	.loc 4 479 5 is_stmt 1 view .LVU3940
	.loc 4 479 33 view .LVU3941
	.loc 4 479 35 is_stmt 0 view .LVU3942
	movq	%rax, %r8
	shrq	$32, %r8
.LVL891:
	.loc 4 480 5 is_stmt 1 view .LVU3943
	.loc 4 480 7 is_stmt 0 view .LVU3944
	addq	%r8, %rcx
.LVL892:
	.loc 4 481 5 is_stmt 1 view .LVU3945
	.loc 4 481 33 view .LVU3946
	.loc 4 481 35 is_stmt 0 view .LVU3947
	movq	%rcx, %r8
	shrq	$32, %r8
.LVL893:
	.loc 4 482 5 is_stmt 1 view .LVU3948
	.loc 4 482 7 is_stmt 0 view .LVU3949
	addq	%r8, %rdx
.LVL894:
	.loc 4 483 5 is_stmt 1 view .LVU3950
	.loc 4 483 33 view .LVU3951
	.loc 4 483 35 is_stmt 0 view .LVU3952
	movq	%rdx, %r8
	shrq	$32, %r8
.LVL895:
	.loc 4 484 5 is_stmt 1 view .LVU3953
	.loc 4 484 7 is_stmt 0 view .LVU3954
	addq	%r8, %rbx
.LVL896:
	.loc 4 485 5 is_stmt 1 view .LVU3955
	.loc 4 485 33 view .LVU3956
	.loc 4 488 5 view .LVU3957
.LBB1234:
.LBI1234:
	.loc 4 75 29 view .LVU3958
.LBB1235:
	.loc 4 76 5 view .LVU3959
	.loc 4 77 5 view .LVU3960
	.loc 4 78 5 view .LVU3961
	.loc 4 79 5 view .LVU3962
	.loc 4 80 5 view .LVU3963
	.loc 4 81 5 view .LVU3964
	.loc 4 81 8 is_stmt 0 view .LVU3965
	movl	%ecx, %r8d
.LBE1235:
.LBE1234:
.LBB1243:
.LBB1244:
	.loc 4 106 7 view .LVU3966
	movl	%ecx, %ecx
.LVL897:
	.loc 4 106 7 view .LVU3967
.LBE1244:
.LBE1243:
.LBB1252:
.LBB1236:
	.loc 4 81 8 view .LVU3968
	andl	%edx, %r8d
.LVL898:
	.loc 4 81 8 view .LVU3969
.LBE1236:
.LBE1252:
.LBB1253:
.LBB1245:
	.loc 4 108 7 view .LVU3970
	movl	%edx, %edx
	.loc 4 108 7 view .LVU3971
.LBE1245:
.LBE1253:
.LBB1254:
.LBB1237:
	.loc 4 81 8 view .LVU3972
	andl	%ebx, %r8d
	cmpl	$-1, %r8d
	setne	%r8b
	.loc 4 81 20 view .LVU3973
	cmpl	$-3, %eax
	setbe	%dil
	.loc 4 82 21 view .LVU3974
	xorl	%ebp, %ebp
	.loc 4 81 8 view .LVU3975
	orl	%edi, %r8d
	.loc 4 82 21 view .LVU3976
	cmpl	$-1, %eax
.LBE1237:
.LBE1254:
.LBB1255:
.LBB1246:
	.loc 4 104 28 view .LVU3977
	movl	%eax, %eax
.LBE1246:
.LBE1255:
.LBB1256:
.LBB1238:
	.loc 4 81 8 view .LVU3978
	movzbl	%r8b, %r8d
.LVL899:
	.loc 4 82 5 is_stmt 1 view .LVU3979
	.loc 4 82 21 is_stmt 0 view .LVU3980
	sete	%bpl
	.loc 4 82 40 view .LVU3981
	movl	%r8d, %edi
	notl	%edi
	.loc 4 82 38 view .LVU3982
	andl	%edi, %ebp
.LVL900:
	.loc 4 83 5 is_stmt 1 view .LVU3983
	.loc 4 83 20 is_stmt 0 view .LVU3984
	xorl	%edi, %edi
	cmpl	$-1162945307, %esi
	.loc 4 83 39 view .LVU3985
	movl	%ebp, %r12d
	.loc 4 83 20 view .LVU3986
	setbe	%dil
	.loc 4 83 39 view .LVU3987
	notl	%r12d
	.loc 4 83 37 view .LVU3988
	andl	%r12d, %edi
	.loc 4 83 8 view .LVU3989
	orl	%r8d, %edi
.LVL901:
	.loc 4 84 5 is_stmt 1 view .LVU3990
	.loc 4 84 21 is_stmt 0 view .LVU3991
	xorl	%r8d, %r8d
	cmpl	$-1162945306, %esi
.LBE1238:
.LBE1256:
.LBB1257:
.LBB1247:
	.loc 4 102 28 view .LVU3992
	movl	%esi, %esi
.LBE1247:
.LBE1257:
.LBB1258:
.LBB1239:
	.loc 4 84 40 view .LVU3993
	movl	%edi, %r12d
	.loc 4 84 21 view .LVU3994
	seta	%r8b
	.loc 4 84 40 view .LVU3995
	notl	%r12d
	.loc 4 84 38 view .LVU3996
	andl	%r12d, %r8d
	.loc 4 84 9 view .LVU3997
	orl	%ebp, %r8d
.LVL902:
	.loc 4 85 5 is_stmt 1 view .LVU3998
	.loc 4 85 20 is_stmt 0 view .LVU3999
	xorl	%ebp, %ebp
	cmpl	$-1354194886, %r9d
	.loc 4 85 39 view .LVU4000
	movl	%r8d, %r12d
	.loc 4 85 20 view .LVU4001
	setbe	%bpl
	.loc 4 85 39 view .LVU4002
	notl	%r12d
	.loc 4 85 37 view .LVU4003
	andl	%r12d, %ebp
	.loc 4 85 8 view .LVU4004
	orl	%edi, %ebp
.LVL903:
	.loc 4 86 5 is_stmt 1 view .LVU4005
	.loc 4 86 21 is_stmt 0 view .LVU4006
	xorl	%edi, %edi
	cmpl	$-1354194885, %r9d
.LBE1239:
.LBE1258:
.LBB1259:
.LBB1248:
	.loc 4 100 28 view .LVU4007
	movl	%r9d, %r9d
.LBE1248:
.LBE1259:
.LBB1260:
.LBB1240:
	.loc 4 86 40 view .LVU4008
	movl	%ebp, %r12d
	.loc 4 86 21 view .LVU4009
	seta	%dil
	.loc 4 86 40 view .LVU4010
	notl	%r12d
	.loc 4 86 38 view .LVU4011
	andl	%r12d, %edi
	.loc 4 86 9 view .LVU4012
	orl	%r8d, %edi
.LVL904:
	.loc 4 87 5 is_stmt 1 view .LVU4013
	.loc 4 88 5 view .LVU4014
	.loc 4 89 5 view .LVU4015
	.loc 4 87 20 is_stmt 0 view .LVU4016
	xorl	%r8d, %r8d
	cmpl	$-1076732277, %r11d
	.loc 4 87 39 view .LVU4017
	movl	%edi, %r12d
	.loc 4 87 20 view .LVU4018
	setbe	%r8b
	.loc 4 87 39 view .LVU4019
	notl	%r12d
	.loc 4 87 37 view .LVU4020
	andl	%r12d, %r8d
	.loc 4 87 8 view .LVU4021
	orl	%ebp, %r8d
	.loc 4 88 21 view .LVU4022
	cmpl	$-1076732276, %r11d
.LBE1240:
.LBE1260:
.LBB1261:
.LBB1249:
	.loc 4 98 28 view .LVU4023
	movl	%r11d, %r11d
	.loc 4 98 28 view .LVU4024
.LBE1249:
.LBE1261:
.LBB1262:
.LBB1241:
	.loc 4 88 21 view .LVU4025
	seta	%bpl
.LVL905:
	.loc 4 89 21 view .LVU4026
	cmpl	$-801750720, %r10d
	.loc 4 88 40 view .LVU4027
	notl	%r8d
	.loc 4 89 21 view .LVU4028
	seta	%r12b
	orl	%r12d, %ebp
	movzbl	%bpl, %ebp
	andl	%ebp, %r8d
	.loc 4 90 5 is_stmt 1 view .LVU4029
.LVL906:
	.loc 4 90 5 is_stmt 0 view .LVU4030
.LBE1241:
.LBE1262:
.LBB1263:
.LBB1250:
	.loc 4 96 7 view .LVU4031
	movl	%r10d, %ebp
.LBE1250:
.LBE1263:
.LBB1264:
.LBB1242:
	.loc 4 89 9 view .LVU4032
	orl	%edi, %r8d
.LBE1242:
.LBE1264:
	.loc 4 485 35 view .LVU4033
	movq	%rbx, %rdi
	shrq	$32, %rdi
.LVL907:
	.loc 4 488 5 discriminator 1 view .LVU4034
	addl	%edi, %r8d
.LVL908:
.LBB1265:
.LBI1243:
	.loc 4 93 29 is_stmt 1 view .LVU4035
.LBB1251:
	.loc 4 94 5 view .LVU4036
	.loc 4 95 5 view .LVU4037
	.loc 4 95 5 view .LVU4038
	.loc 4 96 5 view .LVU4039
	.loc 4 96 38 is_stmt 0 view .LVU4040
	imull	$801750719, %r8d, %r12d
	.loc 4 104 28 view .LVU4041
	addq	%r8, %rax
	.loc 4 96 7 view .LVU4042
	addq	%r12, %rbp
.LVL909:
	.loc 4 97 5 is_stmt 1 view .LVU4043
	.loc 4 97 33 view .LVU4044
	.loc 4 96 38 is_stmt 0 view .LVU4045
	movq	%r12, %rdi
.LVL910:
	.loc 4 98 39 view .LVU4046
	imull	$1076732275, %r8d, %r12d
	.loc 4 97 35 view .LVU4047
	shrq	$32, %rbp
.LVL911:
	.loc 4 98 5 is_stmt 1 view .LVU4048
	.loc 4 97 13 is_stmt 0 view .LVU4049
	addl	%r10d, %edi
	movd	%edi, %xmm0
	.loc 4 98 28 view .LVU4050
	addq	%r12, %r11
	.loc 4 100 39 view .LVU4051
	imull	$1354194884, %r8d, %r12d
	.loc 4 98 7 view .LVU4052
	addq	%rbp, %r11
.LVL912:
	.loc 4 99 5 is_stmt 1 view .LVU4053
	.loc 4 99 33 view .LVU4054
	.loc 4 99 35 is_stmt 0 view .LVU4055
	movq	%r11, %rbp
	.loc 4 97 13 view .LVU4056
	movd	%r11d, %xmm3
	.loc 4 99 35 view .LVU4057
	shrq	$32, %rbp
.LVL913:
	.loc 4 100 5 is_stmt 1 view .LVU4058
	.loc 4 100 28 is_stmt 0 view .LVU4059
	addq	%r12, %r9
	.loc 4 97 13 view .LVU4060
	punpckldq	%xmm3, %xmm0
	.loc 4 102 39 view .LVU4061
	imull	$1162945305, %r8d, %r12d
	.loc 4 100 7 view .LVU4062
	addq	%rbp, %r9
.LVL914:
	.loc 4 101 5 is_stmt 1 view .LVU4063
	.loc 4 101 33 view .LVU4064
	.loc 4 101 35 is_stmt 0 view .LVU4065
	movq	%r9, %rbp
	.loc 4 97 13 view .LVU4066
	movd	%r9d, %xmm1
	.loc 4 101 35 view .LVU4067
	shrq	$32, %rbp
.LVL915:
	.loc 4 102 5 is_stmt 1 view .LVU4068
	.loc 4 102 28 is_stmt 0 view .LVU4069
	addq	%r12, %rsi
	.loc 4 102 7 view .LVU4070
	addq	%rbp, %rsi
.LVL916:
	.loc 4 103 5 is_stmt 1 view .LVU4071
	.loc 4 103 33 view .LVU4072
	.loc 4 103 35 is_stmt 0 view .LVU4073
	movq	%rsi, %rbp
	.loc 4 97 13 view .LVU4074
	movd	%esi, %xmm2
	movq	128(%rsp), %rsi
.LVL917:
	.loc 4 103 35 view .LVU4075
	shrq	$32, %rbp
.LVL918:
	.loc 4 104 5 is_stmt 1 view .LVU4076
	.loc 4 97 13 is_stmt 0 view .LVU4077
	punpckldq	%xmm2, %xmm1
	.loc 4 104 7 view .LVU4078
	addq	%rbp, %rax
.LVL919:
	.loc 4 105 5 is_stmt 1 view .LVU4079
	.loc 4 105 33 view .LVU4080
	.loc 4 97 13 is_stmt 0 view .LVU4081
	punpcklqdq	%xmm1, %xmm0
	.loc 4 105 35 view .LVU4082
	movq	%rax, %r8
.LVL920:
	.loc 4 97 13 view .LVU4083
	movups	%xmm0, (%rsi)
.LVL921:
	.loc 4 97 13 view .LVU4084
	movd	%eax, %xmm0
	.loc 4 105 35 view .LVU4085
	shrq	$32, %r8
.LVL922:
	.loc 4 106 5 is_stmt 1 view .LVU4086
	.loc 4 106 7 is_stmt 0 view .LVU4087
	addq	%r8, %rcx
.LVL923:
	.loc 4 107 5 is_stmt 1 view .LVU4088
	.loc 4 107 33 view .LVU4089
	.loc 4 107 35 is_stmt 0 view .LVU4090
	movq	%rcx, %r8
	.loc 4 97 13 view .LVU4091
	movd	%ecx, %xmm5
	.loc 4 107 35 view .LVU4092
	shrq	$32, %r8
.LVL924:
	.loc 4 108 5 is_stmt 1 view .LVU4093
	.loc 4 97 13 is_stmt 0 view .LVU4094
	punpckldq	%xmm5, %xmm0
	.loc 4 108 7 view .LVU4095
	addq	%r8, %rdx
.LVL925:
	.loc 4 109 5 is_stmt 1 view .LVU4096
	.loc 4 109 33 view .LVU4097
	.loc 4 109 35 is_stmt 0 view .LVU4098
	movq	%rdx, %r8
	.loc 4 97 13 view .LVU4099
	movd	%edx, %xmm1
	.loc 4 109 35 view .LVU4100
	shrq	$32, %r8
.LVL926:
	.loc 4 110 5 is_stmt 1 view .LVU4101
	.loc 4 111 5 view .LVU4102
	.loc 4 110 7 is_stmt 0 view .LVU4103
	addl	%ebx, %r8d
.LVL927:
	.loc 4 97 13 view .LVU4104
	movd	%r8d, %xmm4
	punpckldq	%xmm4, %xmm1
	punpcklqdq	%xmm1, %xmm0
	movups	%xmm0, 16(%rsi)
	.loc 4 112 5 is_stmt 1 view .LVU4105
.LVL928:
	.loc 4 112 5 is_stmt 0 view .LVU4106
.LBE1251:
.LBE1265:
	.loc 4 489 1 view .LVU4107
	addq	$56, %rsp
.LCFI136:
	.cfi_remember_state
	.cfi_def_cfa_offset 72
	popq	%rbx
.LCFI137:
	.cfi_restore 3
	.cfi_def_cfa_offset 64
.LVL929:
	.loc 4 489 1 view .LVU4108
	popq	%rsi
.LCFI138:
	.cfi_restore 4
	.cfi_def_cfa_offset 56
	popq	%rdi
.LCFI139:
	.cfi_restore 5
	.cfi_def_cfa_offset 48
	popq	%rbp
.LCFI140:
	.cfi_restore 6
	.cfi_def_cfa_offset 40
	popq	%r12
.LCFI141:
	.cfi_restore 12
	.cfi_def_cfa_offset 32
	popq	%r13
.LCFI142:
	.cfi_restore 13
	.cfi_def_cfa_offset 24
.LVL930:
	.loc 4 489 1 view .LVU4109
	popq	%r14
.LCFI143:
	.cfi_restore 14
	.cfi_def_cfa_offset 16
.LVL931:
	.loc 4 489 1 view .LVU4110
	popq	%r15
.LCFI144:
	.cfi_restore 15
	.cfi_def_cfa_offset 8
.LVL932:
	.loc 4 489 1 view .LVU4111
	ret
.LVL933:
	.p2align 4,,10
	.p2align 3
.L217:
.LCFI145:
	.cfi_restore_state
.LBB1266:
	.loc 4 396 5 discriminator 5 view .LVU4112
	movl	$1, %ebx
.LBE1266:
.LBB1267:
	.loc 4 397 5 discriminator 2 view .LVU4113
	xorl	%esi, %esi
	jmp	.L130
.LVL934:
	.p2align 4,,10
	.p2align 3
.L219:
	.loc 4 397 5 discriminator 2 view .LVU4114
.LBE1267:
.LBB1268:
	.loc 4 403 5 discriminator 5 view .LVU4115
	movl	$1, %r8d
.LVL935:
.L147:
	.loc 4 403 5 discriminator 5 view .LVU4116
.LBE1268:
	.loc 4 404 15 is_stmt 1 view .LVU4117
	.loc 4 405 5 view .LVU4118
	.loc 4 405 5 view .LVU4119
	.loc 4 405 5 view .LVU4120
	.loc 4 405 5 view .LVU4121
	.loc 4 405 16 view .LVU4122
.LBB1269:
	.loc 4 406 5 view .LVU4123
.LBB1065:
	.loc 4 406 5 view .LVU4124
	.loc 4 406 5 view .LVU4125
	.loc 4 406 5 view .LVU4126
	.loc 4 406 5 is_stmt 0 view .LVU4127
.LBE1065:
	.loc 4 406 5 is_stmt 1 view .LVU4128
	addl	%ecx, %edx
	setc	%bl
	movl	%edx, %ecx
	.loc 4 406 5 view .LVU4129
	movzbl	%bl, %ebx
	jmp	.L148
.LVL936:
	.p2align 4,,10
	.p2align 3
.L215:
	.loc 4 406 5 is_stmt 0 view .LVU4130
.LBE1269:
.LBB1270:
	.loc 4 389 5 discriminator 5 view .LVU4131
	movl	$1, %esi
.LBE1270:
.LBB1271:
	.loc 4 390 5 discriminator 2 view .LVU4132
	xorl	%edi, %edi
	jmp	.L113
.LVL937:
	.p2align 4,,10
	.p2align 3
.L213:
	.loc 4 390 5 discriminator 2 view .LVU4133
.LBE1271:
.LBB1272:
	.loc 4 382 5 discriminator 5 view .LVU4134
	movl	$1, %edi
.LBE1272:
.LBB1273:
	.loc 4 383 5 discriminator 2 view .LVU4135
	xorl	%ebp, %ebp
	jmp	.L96
.LBE1273:
	.cfi_endproc
.LFE162:
	.seh_endproc
	.p2align 4
	.def	secp256k1_scalar_mul_512;	.scl	3;	.type	32;	.endef
	.seh_proc	secp256k1_scalar_mul_512
secp256k1_scalar_mul_512:
.LVL938:
.LFB163:
	.loc 4 491 105 is_stmt 1 view -0
	.cfi_startproc
	.loc 4 491 105 is_stmt 0 view .LVU4137
	pushq	%rbx
	.seh_pushreg	%rbx
.LCFI146:
	.cfi_def_cfa_offset 16
	.cfi_offset 3, -16
	.seh_endprologue
	.loc 4 493 5 is_stmt 1 view .LVU4138
.LVL939:
.LBB1274:
	.loc 4 496 5 view .LVU4139
.LBB1275:
	.loc 4 496 5 view .LVU4140
	movl	(%r8), %eax
	movl	(%rdx), %r9d
	imulq	%rax, %r9
.LVL940:
	.loc 4 496 5 view .LVU4141
	.loc 4 496 5 view .LVU4142
	.loc 4 496 5 is_stmt 0 view .LVU4143
.LBE1275:
	.loc 4 496 5 is_stmt 1 view .LVU4144
	.loc 4 496 5 view .LVU4145
	.loc 4 496 5 view .LVU4146
	.loc 4 496 5 view .LVU4147
	.loc 4 496 5 view .LVU4148
.LBE1274:
	.loc 4 496 34 view .LVU4149
	.loc 4 497 5 view .LVU4150
.LBB1278:
.LBB1276:
	.loc 4 496 5 is_stmt 0 view .LVU4151
	movl	%r9d, (%rcx)
.LBE1276:
.LBE1278:
	.loc 4 497 5 is_stmt 1 view .LVU4152
.LVL941:
	.loc 4 497 5 view .LVU4153
	.loc 4 497 5 view .LVU4154
	.loc 4 497 5 view .LVU4155
	.loc 4 497 23 view .LVU4156
.LBB1279:
	.loc 4 498 5 view .LVU4157
.LBB1280:
	.loc 4 498 5 view .LVU4158
	movl	4(%r8), %eax
.LBE1280:
.LBE1279:
.LBB1283:
.LBB1277:
	.loc 4 496 5 is_stmt 0 view .LVU4159
	shrq	$32, %r9
.LVL942:
	.loc 4 496 5 view .LVU4160
.LBE1277:
.LBE1283:
.LBB1284:
.LBB1281:
	.loc 4 498 5 view .LVU4161
	movl	(%rdx), %r10d
.LBE1281:
.LBE1284:
.LBB1285:
.LBB1286:
	.loc 4 499 5 view .LVU4162
	movl	(%r8), %r11d
.LBE1286:
.LBE1285:
.LBB1289:
.LBB1282:
	.loc 4 498 5 view .LVU4163
	imulq	%rax, %r10
.LVL943:
	.loc 4 498 5 is_stmt 1 view .LVU4164
	movq	%r10, %rax
	shrq	$32, %rax
.LVL944:
	.loc 4 498 5 view .LVU4165
	.loc 4 498 5 is_stmt 0 view .LVU4166
.LBE1282:
	.loc 4 498 5 is_stmt 1 view .LVU4167
	.loc 4 498 5 view .LVU4168
	addl	%r10d, %r9d
.LVL945:
	.loc 4 498 5 is_stmt 0 view .LVU4169
.LBE1289:
.LBB1290:
.LBB1287:
	.loc 4 499 5 view .LVU4170
	movl	4(%rdx), %r10d
.LVL946:
	.loc 4 499 5 view .LVU4171
.LBE1287:
.LBE1290:
.LBB1291:
	.loc 4 498 5 discriminator 4 view .LVU4172
	adcl	$0, %eax
.LVL947:
	.loc 4 498 5 is_stmt 1 view .LVU4173
	.loc 4 498 5 view .LVU4174
	.loc 4 498 5 view .LVU4175
	.loc 4 498 5 view .LVU4176
.LBE1291:
	.loc 4 498 29 view .LVU4177
.LBB1292:
	.loc 4 499 5 view .LVU4178
.LBB1288:
	.loc 4 499 5 view .LVU4179
	imulq	%r11, %r10
.LVL948:
	.loc 4 499 5 view .LVU4180
	movq	%r10, %r11
	shrq	$32, %r11
.LVL949:
	.loc 4 499 5 view .LVU4181
	.loc 4 499 5 is_stmt 0 view .LVU4182
.LBE1288:
	.loc 4 499 5 is_stmt 1 view .LVU4183
	.loc 4 499 5 view .LVU4184
	.loc 4 499 5 view .LVU4185
	addl	%r10d, %r9d
.LVL950:
	.loc 4 499 5 is_stmt 0 discriminator 4 view .LVU4186
	movl	%r11d, %r10d
.LVL951:
	.loc 4 499 5 discriminator 4 view .LVU4187
.LBE1292:
	.loc 4 500 5 view .LVU4188
	movl	%r9d, 4(%rcx)
.LVL952:
.LBB1293:
.LBB1294:
	.loc 4 501 5 view .LVU4189
	movl	(%rdx), %r9d
.LVL953:
	.loc 4 501 5 view .LVU4190
.LBE1294:
.LBE1293:
.LBB1297:
	.loc 4 499 5 discriminator 4 view .LVU4191
	adcl	$0, %r10d
.LVL954:
	.loc 4 499 5 is_stmt 1 view .LVU4192
	.loc 4 499 5 is_stmt 0 discriminator 4 view .LVU4193
	xorl	%ebx, %ebx
	addl	%r10d, %eax
.LVL955:
	.loc 4 499 5 discriminator 4 view .LVU4194
.LBE1297:
.LBB1298:
.LBB1295:
	.loc 4 501 5 view .LVU4195
	movl	8(%r8), %r10d
.LBE1295:
.LBE1298:
.LBB1299:
	.loc 4 499 5 discriminator 4 view .LVU4196
	setc	%bl
.LVL956:
	.loc 4 499 5 is_stmt 1 view .LVU4197
	.loc 4 499 5 view .LVU4198
.LBE1299:
	.loc 4 499 29 view .LVU4199
	.loc 4 500 5 view .LVU4200
	.loc 4 500 5 view .LVU4201
	.loc 4 500 5 view .LVU4202
	.loc 4 500 5 view .LVU4203
	.loc 4 500 18 view .LVU4204
.LBB1300:
	.loc 4 501 5 view .LVU4205
.LBB1296:
	.loc 4 501 5 view .LVU4206
	imulq	%r10, %r9
.LVL957:
	.loc 4 501 5 view .LVU4207
	movq	%r9, %r10
	shrq	$32, %r10
.LVL958:
	.loc 4 501 5 view .LVU4208
	.loc 4 501 5 is_stmt 0 view .LVU4209
.LBE1296:
	.loc 4 501 5 is_stmt 1 view .LVU4210
	.loc 4 501 5 view .LVU4211
	addl	%r9d, %eax
	setc	%r9b
.LVL959:
	.loc 4 501 5 is_stmt 0 discriminator 4 view .LVU4212
	leal	(%rbx,%r10), %r11d
	.loc 4 501 5 view .LVU4213
	movzbl	%r9b, %r9d
	jnc	.L240
.LVL960:
	.loc 4 501 5 is_stmt 1 view .LVU4214
	.loc 4 501 5 is_stmt 0 discriminator 4 view .LVU4215
	leal	1(%r10), %r11d
.LVL961:
	.loc 4 501 5 discriminator 4 view .LVU4216
	xorl	%r9d, %r9d
	addl	%ebx, %r11d
.LVL962:
	.loc 4 501 5 discriminator 4 view .LVU4217
	setc	%r9b
.LVL963:
.L240:
	.loc 4 501 5 is_stmt 1 view .LVU4218
	.loc 4 501 5 view .LVU4219
.LBE1300:
	.loc 4 501 29 view .LVU4220
.LBB1301:
	.loc 4 502 5 view .LVU4221
.LBB1302:
	.loc 4 502 5 view .LVU4222
	movl	4(%r8), %r10d
	movl	4(%rdx), %ebx
.LVL964:
	.loc 4 502 5 is_stmt 0 view .LVU4223
	imulq	%r10, %rbx
.LVL965:
	.loc 4 502 5 is_stmt 1 view .LVU4224
	movq	%rbx, %r10
	shrq	$32, %r10
.LVL966:
	.loc 4 502 5 view .LVU4225
	.loc 4 502 5 is_stmt 0 view .LVU4226
.LBE1302:
	.loc 4 502 5 is_stmt 1 view .LVU4227
	.loc 4 502 5 view .LVU4228
	.loc 4 502 5 view .LVU4229
	addl	%ebx, %eax
.LVL967:
	.loc 4 502 5 is_stmt 0 view .LVU4230
.LBE1301:
.LBB1303:
.LBB1304:
	.loc 4 503 5 view .LVU4231
	movl	(%r8), %ebx
.LVL968:
	.loc 4 503 5 view .LVU4232
.LBE1304:
.LBE1303:
.LBB1307:
	.loc 4 502 5 discriminator 4 view .LVU4233
	adcl	$0, %r10d
.LVL969:
	.loc 4 502 5 is_stmt 1 view .LVU4234
	.loc 4 502 5 is_stmt 0 discriminator 4 view .LVU4235
	addl	%r11d, %r10d
.LBE1307:
.LBB1308:
.LBB1305:
	.loc 4 503 5 view .LVU4236
	movl	8(%rdx), %r11d
.LBE1305:
.LBE1308:
.LBB1309:
	.loc 4 502 5 discriminator 8 view .LVU4237
	adcl	$0, %r9d
.LVL970:
	.loc 4 502 5 is_stmt 1 view .LVU4238
	.loc 4 502 5 view .LVU4239
.LBE1309:
	.loc 4 502 29 view .LVU4240
.LBB1310:
	.loc 4 503 5 view .LVU4241
.LBB1306:
	.loc 4 503 5 view .LVU4242
	imulq	%rbx, %r11
.LVL971:
	.loc 4 503 5 view .LVU4243
	movq	%r11, %rbx
	shrq	$32, %rbx
.LVL972:
	.loc 4 503 5 view .LVU4244
	.loc 4 503 5 is_stmt 0 view .LVU4245
.LBE1306:
	.loc 4 503 5 is_stmt 1 view .LVU4246
	.loc 4 503 5 view .LVU4247
	.loc 4 503 5 view .LVU4248
	addl	%r11d, %eax
.LVL973:
	.loc 4 503 5 is_stmt 0 discriminator 4 view .LVU4249
	movl	%ebx, %r11d
.LVL974:
	.loc 4 503 5 discriminator 4 view .LVU4250
.LBE1310:
	.loc 4 504 5 view .LVU4251
	movl	%eax, 8(%rcx)
.LVL975:
.LBB1311:
.LBB1312:
	.loc 4 505 5 view .LVU4252
	movl	(%rdx), %eax
.LVL976:
	.loc 4 505 5 view .LVU4253
.LBE1312:
.LBE1311:
.LBB1315:
	.loc 4 503 5 discriminator 4 view .LVU4254
	adcl	$0, %r11d
.LVL977:
	.loc 4 503 5 is_stmt 1 view .LVU4255
.LBE1315:
.LBB1316:
.LBB1317:
	.loc 4 506 5 is_stmt 0 view .LVU4256
	movl	8(%r8), %ebx
.LBE1317:
.LBE1316:
.LBB1321:
	.loc 4 503 5 discriminator 4 view .LVU4257
	addl	%r11d, %r10d
.LVL978:
	.loc 4 503 5 discriminator 4 view .LVU4258
.LBE1321:
.LBB1322:
.LBB1313:
	.loc 4 505 5 view .LVU4259
	movl	12(%r8), %r11d
.LBE1313:
.LBE1322:
.LBB1323:
	.loc 4 503 5 discriminator 8 view .LVU4260
	adcl	$0, %r9d
.LVL979:
	.loc 4 503 5 is_stmt 1 view .LVU4261
	.loc 4 503 5 view .LVU4262
.LBE1323:
	.loc 4 503 29 view .LVU4263
	.loc 4 504 5 view .LVU4264
	.loc 4 504 5 view .LVU4265
	.loc 4 504 5 view .LVU4266
	.loc 4 504 5 view .LVU4267
	.loc 4 504 18 view .LVU4268
.LBB1324:
	.loc 4 505 5 view .LVU4269
.LBB1314:
	.loc 4 505 5 view .LVU4270
	imulq	%r11, %rax
.LVL980:
	.loc 4 505 5 view .LVU4271
	movq	%rax, %r11
	shrq	$32, %r11
.LVL981:
	.loc 4 505 5 view .LVU4272
	.loc 4 505 5 is_stmt 0 view .LVU4273
.LBE1314:
	.loc 4 505 5 is_stmt 1 view .LVU4274
	.loc 4 505 5 view .LVU4275
	.loc 4 505 5 view .LVU4276
	addl	%eax, %r10d
.LVL982:
	.loc 4 505 5 is_stmt 0 discriminator 4 view .LVU4277
	movl	%r11d, %eax
.LVL983:
	.loc 4 505 5 discriminator 4 view .LVU4278
.LBE1324:
.LBB1325:
.LBB1318:
	.loc 4 506 5 view .LVU4279
	movl	4(%rdx), %r11d
.LVL984:
	.loc 4 506 5 view .LVU4280
.LBE1318:
.LBE1325:
.LBB1326:
	.loc 4 505 5 discriminator 4 view .LVU4281
	adcl	$0, %eax
.LVL985:
	.loc 4 505 5 discriminator 4 view .LVU4282
	addl	%eax, %r9d
.LVL986:
	.loc 4 505 5 discriminator 4 view .LVU4283
	setc	%al
.LBE1326:
.LBB1327:
.LBB1319:
	.loc 4 506 5 view .LVU4284
	imulq	%rbx, %r11
	movzbl	%al, %eax
	.loc 4 506 5 view .LVU4285
.LBE1319:
.LBE1327:
.LBB1328:
	.loc 4 505 5 is_stmt 1 view .LVU4286
.LVL987:
	.loc 4 505 5 view .LVU4287
	.loc 4 505 5 view .LVU4288
.LBE1328:
	.loc 4 505 29 view .LVU4289
.LBB1329:
	.loc 4 506 5 view .LVU4290
.LBB1320:
	.loc 4 506 5 view .LVU4291
	.loc 4 506 5 view .LVU4292
	movq	%r11, %rbx
	shrq	$32, %rbx
.LVL988:
	.loc 4 506 5 view .LVU4293
	.loc 4 506 5 is_stmt 0 view .LVU4294
.LBE1320:
	.loc 4 506 5 is_stmt 1 view .LVU4295
	.loc 4 506 5 view .LVU4296
	.loc 4 506 5 view .LVU4297
	addl	%r11d, %r10d
.LVL989:
	.loc 4 506 5 is_stmt 0 discriminator 4 view .LVU4298
	movl	%ebx, %r11d
.LVL990:
	.loc 4 506 5 discriminator 4 view .LVU4299
.LBE1329:
.LBB1330:
.LBB1331:
	.loc 4 507 5 view .LVU4300
	movl	4(%r8), %ebx
.LVL991:
	.loc 4 507 5 view .LVU4301
.LBE1331:
.LBE1330:
.LBB1334:
	.loc 4 506 5 discriminator 4 view .LVU4302
	adcl	$0, %r11d
.LVL992:
	.loc 4 506 5 is_stmt 1 view .LVU4303
	.loc 4 506 5 is_stmt 0 discriminator 4 view .LVU4304
	addl	%r11d, %r9d
.LBE1334:
.LBB1335:
.LBB1332:
	.loc 4 507 5 view .LVU4305
	movl	8(%rdx), %r11d
.LBE1332:
.LBE1335:
.LBB1336:
	.loc 4 506 5 discriminator 8 view .LVU4306
	adcl	$0, %eax
.LVL993:
	.loc 4 506 5 is_stmt 1 view .LVU4307
	.loc 4 506 5 view .LVU4308
.LBE1336:
	.loc 4 506 29 view .LVU4309
.LBB1337:
	.loc 4 507 5 view .LVU4310
.LBB1333:
	.loc 4 507 5 view .LVU4311
	imulq	%rbx, %r11
.LVL994:
	.loc 4 507 5 view .LVU4312
	movq	%r11, %rbx
	shrq	$32, %rbx
.LVL995:
	.loc 4 507 5 view .LVU4313
	.loc 4 507 5 is_stmt 0 view .LVU4314
.LBE1333:
	.loc 4 507 5 is_stmt 1 view .LVU4315
	.loc 4 507 5 view .LVU4316
	.loc 4 507 5 view .LVU4317
	addl	%r11d, %r10d
.LVL996:
	.loc 4 507 5 is_stmt 0 discriminator 4 view .LVU4318
	movl	%ebx, %r11d
.LVL997:
	.loc 4 507 5 discriminator 4 view .LVU4319
.LBE1337:
.LBB1338:
.LBB1339:
	.loc 4 508 5 view .LVU4320
	movl	(%r8), %ebx
.LVL998:
	.loc 4 508 5 view .LVU4321
.LBE1339:
.LBE1338:
.LBB1342:
	.loc 4 507 5 discriminator 4 view .LVU4322
	adcl	$0, %r11d
.LVL999:
	.loc 4 507 5 is_stmt 1 view .LVU4323
	.loc 4 507 5 is_stmt 0 discriminator 4 view .LVU4324
	addl	%r11d, %r9d
.LBE1342:
.LBB1343:
.LBB1340:
	.loc 4 508 5 view .LVU4325
	movl	12(%rdx), %r11d
.LBE1340:
.LBE1343:
.LBB1344:
	.loc 4 507 5 discriminator 8 view .LVU4326
	adcl	$0, %eax
.LVL1000:
	.loc 4 507 5 is_stmt 1 view .LVU4327
	.loc 4 507 5 view .LVU4328
.LBE1344:
	.loc 4 507 29 view .LVU4329
.LBB1345:
	.loc 4 508 5 view .LVU4330
.LBB1341:
	.loc 4 508 5 view .LVU4331
	imulq	%rbx, %r11
.LVL1001:
	.loc 4 508 5 view .LVU4332
	movq	%r11, %rbx
	shrq	$32, %rbx
.LVL1002:
	.loc 4 508 5 view .LVU4333
	.loc 4 508 5 is_stmt 0 view .LVU4334
.LBE1341:
	.loc 4 508 5 is_stmt 1 view .LVU4335
	.loc 4 508 5 view .LVU4336
	.loc 4 508 5 view .LVU4337
	addl	%r11d, %r10d
.LVL1003:
	.loc 4 508 5 is_stmt 0 discriminator 4 view .LVU4338
	movl	%ebx, %r11d
.LVL1004:
	.loc 4 508 5 discriminator 4 view .LVU4339
.LBE1345:
	.loc 4 509 5 view .LVU4340
	movl	%r10d, 12(%rcx)
.LVL1005:
.LBB1346:
.LBB1347:
	.loc 4 510 5 view .LVU4341
	movl	(%rdx), %r10d
.LVL1006:
	.loc 4 510 5 view .LVU4342
.LBE1347:
.LBE1346:
.LBB1350:
	.loc 4 508 5 discriminator 4 view .LVU4343
	adcl	$0, %r11d
.LVL1007:
	.loc 4 508 5 is_stmt 1 view .LVU4344
.LBE1350:
.LBB1351:
.LBB1352:
	.loc 4 511 5 is_stmt 0 view .LVU4345
	movl	12(%r8), %ebx
.LBE1352:
.LBE1351:
.LBB1356:
	.loc 4 508 5 discriminator 4 view .LVU4346
	addl	%r11d, %r9d
.LVL1008:
	.loc 4 508 5 discriminator 4 view .LVU4347
.LBE1356:
.LBB1357:
.LBB1348:
	.loc 4 510 5 view .LVU4348
	movl	16(%r8), %r11d
.LBE1348:
.LBE1357:
.LBB1358:
	.loc 4 508 5 discriminator 8 view .LVU4349
	adcl	$0, %eax
.LVL1009:
	.loc 4 508 5 is_stmt 1 view .LVU4350
	.loc 4 508 5 view .LVU4351
.LBE1358:
	.loc 4 508 29 view .LVU4352
	.loc 4 509 5 view .LVU4353
	.loc 4 509 5 view .LVU4354
	.loc 4 509 5 view .LVU4355
	.loc 4 509 5 view .LVU4356
	.loc 4 509 18 view .LVU4357
.LBB1359:
	.loc 4 510 5 view .LVU4358
.LBB1349:
	.loc 4 510 5 view .LVU4359
	imulq	%r11, %r10
.LVL1010:
	.loc 4 510 5 view .LVU4360
	movq	%r10, %r11
	shrq	$32, %r11
.LVL1011:
	.loc 4 510 5 view .LVU4361
	.loc 4 510 5 is_stmt 0 view .LVU4362
.LBE1349:
	.loc 4 510 5 is_stmt 1 view .LVU4363
	.loc 4 510 5 view .LVU4364
	.loc 4 510 5 view .LVU4365
	addl	%r10d, %r9d
.LVL1012:
	.loc 4 510 5 is_stmt 0 discriminator 4 view .LVU4366
	movl	%r11d, %r10d
.LVL1013:
	.loc 4 510 5 discriminator 4 view .LVU4367
.LBE1359:
.LBB1360:
.LBB1353:
	.loc 4 511 5 view .LVU4368
	movl	4(%rdx), %r11d
.LVL1014:
	.loc 4 511 5 view .LVU4369
.LBE1353:
.LBE1360:
.LBB1361:
	.loc 4 510 5 discriminator 4 view .LVU4370
	adcl	$0, %r10d
.LVL1015:
	.loc 4 510 5 discriminator 4 view .LVU4371
	addl	%r10d, %eax
.LVL1016:
	.loc 4 510 5 discriminator 4 view .LVU4372
	setc	%r10b
.LBE1361:
.LBB1362:
.LBB1354:
	.loc 4 511 5 view .LVU4373
	imulq	%rbx, %r11
	movzbl	%r10b, %r10d
	.loc 4 511 5 view .LVU4374
.LBE1354:
.LBE1362:
.LBB1363:
	.loc 4 510 5 is_stmt 1 view .LVU4375
.LVL1017:
	.loc 4 510 5 view .LVU4376
	.loc 4 510 5 view .LVU4377
.LBE1363:
	.loc 4 510 29 view .LVU4378
.LBB1364:
	.loc 4 511 5 view .LVU4379
.LBB1355:
	.loc 4 511 5 view .LVU4380
	.loc 4 511 5 view .LVU4381
	movq	%r11, %rbx
	shrq	$32, %rbx
.LVL1018:
	.loc 4 511 5 view .LVU4382
	.loc 4 511 5 is_stmt 0 view .LVU4383
.LBE1355:
	.loc 4 511 5 is_stmt 1 view .LVU4384
	.loc 4 511 5 view .LVU4385
	.loc 4 511 5 view .LVU4386
	addl	%r11d, %r9d
.LVL1019:
	.loc 4 511 5 is_stmt 0 discriminator 4 view .LVU4387
	movl	%ebx, %r11d
.LVL1020:
	.loc 4 511 5 discriminator 4 view .LVU4388
.LBE1364:
.LBB1365:
.LBB1366:
	.loc 4 512 5 view .LVU4389
	movl	8(%r8), %ebx
.LVL1021:
	.loc 4 512 5 view .LVU4390
.LBE1366:
.LBE1365:
.LBB1369:
	.loc 4 511 5 discriminator 4 view .LVU4391
	adcl	$0, %r11d
.LVL1022:
	.loc 4 511 5 is_stmt 1 view .LVU4392
	.loc 4 511 5 is_stmt 0 discriminator 4 view .LVU4393
	addl	%r11d, %eax
.LBE1369:
.LBB1370:
.LBB1367:
	.loc 4 512 5 view .LVU4394
	movl	8(%rdx), %r11d
.LBE1367:
.LBE1370:
.LBB1371:
	.loc 4 511 5 discriminator 8 view .LVU4395
	adcl	$0, %r10d
.LVL1023:
	.loc 4 511 5 is_stmt 1 view .LVU4396
	.loc 4 511 5 view .LVU4397
.LBE1371:
	.loc 4 511 29 view .LVU4398
.LBB1372:
	.loc 4 512 5 view .LVU4399
.LBB1368:
	.loc 4 512 5 view .LVU4400
	imulq	%rbx, %r11
.LVL1024:
	.loc 4 512 5 view .LVU4401
	movq	%r11, %rbx
	shrq	$32, %rbx
.LVL1025:
	.loc 4 512 5 view .LVU4402
	.loc 4 512 5 is_stmt 0 view .LVU4403
.LBE1368:
	.loc 4 512 5 is_stmt 1 view .LVU4404
	.loc 4 512 5 view .LVU4405
	.loc 4 512 5 view .LVU4406
	addl	%r11d, %r9d
.LVL1026:
	.loc 4 512 5 is_stmt 0 discriminator 4 view .LVU4407
	movl	%ebx, %r11d
.LVL1027:
	.loc 4 512 5 discriminator 4 view .LVU4408
.LBE1372:
.LBB1373:
.LBB1374:
	.loc 4 513 5 view .LVU4409
	movl	4(%r8), %ebx
.LVL1028:
	.loc 4 513 5 view .LVU4410
.LBE1374:
.LBE1373:
.LBB1377:
	.loc 4 512 5 discriminator 4 view .LVU4411
	adcl	$0, %r11d
.LVL1029:
	.loc 4 512 5 is_stmt 1 view .LVU4412
	.loc 4 512 5 is_stmt 0 discriminator 4 view .LVU4413
	addl	%r11d, %eax
.LBE1377:
.LBB1378:
.LBB1375:
	.loc 4 513 5 view .LVU4414
	movl	12(%rdx), %r11d
.LBE1375:
.LBE1378:
.LBB1379:
	.loc 4 512 5 discriminator 8 view .LVU4415
	adcl	$0, %r10d
.LVL1030:
	.loc 4 512 5 is_stmt 1 view .LVU4416
	.loc 4 512 5 view .LVU4417
.LBE1379:
	.loc 4 512 29 view .LVU4418
.LBB1380:
	.loc 4 513 5 view .LVU4419
.LBB1376:
	.loc 4 513 5 view .LVU4420
	imulq	%rbx, %r11
.LVL1031:
	.loc 4 513 5 view .LVU4421
	movq	%r11, %rbx
	shrq	$32, %rbx
.LVL1032:
	.loc 4 513 5 view .LVU4422
	.loc 4 513 5 is_stmt 0 view .LVU4423
.LBE1376:
	.loc 4 513 5 is_stmt 1 view .LVU4424
	.loc 4 513 5 view .LVU4425
	.loc 4 513 5 view .LVU4426
	addl	%r11d, %r9d
.LVL1033:
	.loc 4 513 5 is_stmt 0 discriminator 4 view .LVU4427
	movl	%ebx, %r11d
.LVL1034:
	.loc 4 513 5 discriminator 4 view .LVU4428
.LBE1380:
.LBB1381:
.LBB1382:
	.loc 4 514 5 view .LVU4429
	movl	(%r8), %ebx
.LVL1035:
	.loc 4 514 5 view .LVU4430
.LBE1382:
.LBE1381:
.LBB1385:
	.loc 4 513 5 discriminator 4 view .LVU4431
	adcl	$0, %r11d
.LVL1036:
	.loc 4 513 5 is_stmt 1 view .LVU4432
	.loc 4 513 5 is_stmt 0 discriminator 4 view .LVU4433
	addl	%r11d, %eax
.LBE1385:
.LBB1386:
.LBB1383:
	.loc 4 514 5 view .LVU4434
	movl	16(%rdx), %r11d
.LBE1383:
.LBE1386:
.LBB1387:
	.loc 4 513 5 discriminator 8 view .LVU4435
	adcl	$0, %r10d
.LVL1037:
	.loc 4 513 5 is_stmt 1 view .LVU4436
	.loc 4 513 5 view .LVU4437
.LBE1387:
	.loc 4 513 29 view .LVU4438
.LBB1388:
	.loc 4 514 5 view .LVU4439
.LBB1384:
	.loc 4 514 5 view .LVU4440
	imulq	%rbx, %r11
.LVL1038:
	.loc 4 514 5 view .LVU4441
	movq	%r11, %rbx
	shrq	$32, %rbx
.LVL1039:
	.loc 4 514 5 view .LVU4442
	.loc 4 514 5 is_stmt 0 view .LVU4443
.LBE1384:
	.loc 4 514 5 is_stmt 1 view .LVU4444
	.loc 4 514 5 view .LVU4445
	.loc 4 514 5 view .LVU4446
	addl	%r11d, %r9d
.LVL1040:
	.loc 4 514 5 is_stmt 0 discriminator 4 view .LVU4447
	movl	%ebx, %r11d
.LVL1041:
	.loc 4 514 5 discriminator 4 view .LVU4448
.LBE1388:
	.loc 4 515 5 view .LVU4449
	movl	%r9d, 16(%rcx)
.LVL1042:
.LBB1389:
.LBB1390:
	.loc 4 516 5 view .LVU4450
	movl	(%rdx), %r9d
.LVL1043:
	.loc 4 516 5 view .LVU4451
.LBE1390:
.LBE1389:
.LBB1393:
	.loc 4 514 5 discriminator 4 view .LVU4452
	adcl	$0, %r11d
.LVL1044:
	.loc 4 514 5 is_stmt 1 view .LVU4453
.LBE1393:
.LBB1394:
.LBB1395:
	.loc 4 517 5 is_stmt 0 view .LVU4454
	movl	16(%r8), %ebx
.LBE1395:
.LBE1394:
.LBB1399:
	.loc 4 514 5 discriminator 4 view .LVU4455
	addl	%r11d, %eax
.LVL1045:
	.loc 4 514 5 discriminator 4 view .LVU4456
.LBE1399:
.LBB1400:
.LBB1391:
	.loc 4 516 5 view .LVU4457
	movl	20(%r8), %r11d
.LBE1391:
.LBE1400:
.LBB1401:
	.loc 4 514 5 discriminator 8 view .LVU4458
	adcl	$0, %r10d
.LVL1046:
	.loc 4 514 5 is_stmt 1 view .LVU4459
	.loc 4 514 5 view .LVU4460
.LBE1401:
	.loc 4 514 29 view .LVU4461
	.loc 4 515 5 view .LVU4462
	.loc 4 515 5 view .LVU4463
	.loc 4 515 5 view .LVU4464
	.loc 4 515 5 view .LVU4465
	.loc 4 515 18 view .LVU4466
.LBB1402:
	.loc 4 516 5 view .LVU4467
.LBB1392:
	.loc 4 516 5 view .LVU4468
	imulq	%r11, %r9
.LVL1047:
	.loc 4 516 5 view .LVU4469
	movq	%r9, %r11
	shrq	$32, %r11
.LVL1048:
	.loc 4 516 5 view .LVU4470
	.loc 4 516 5 is_stmt 0 view .LVU4471
.LBE1392:
	.loc 4 516 5 is_stmt 1 view .LVU4472
	.loc 4 516 5 view .LVU4473
	.loc 4 516 5 view .LVU4474
	addl	%r9d, %eax
.LVL1049:
	.loc 4 516 5 is_stmt 0 discriminator 4 view .LVU4475
	movl	%r11d, %r9d
.LVL1050:
	.loc 4 516 5 discriminator 4 view .LVU4476
.LBE1402:
.LBB1403:
.LBB1396:
	.loc 4 517 5 view .LVU4477
	movl	4(%rdx), %r11d
.LVL1051:
	.loc 4 517 5 view .LVU4478
.LBE1396:
.LBE1403:
.LBB1404:
	.loc 4 516 5 discriminator 4 view .LVU4479
	adcl	$0, %r9d
.LVL1052:
	.loc 4 516 5 discriminator 4 view .LVU4480
	addl	%r9d, %r10d
.LVL1053:
	.loc 4 516 5 discriminator 4 view .LVU4481
	setc	%r9b
.LBE1404:
.LBB1405:
.LBB1397:
	.loc 4 517 5 view .LVU4482
	imulq	%rbx, %r11
	movzbl	%r9b, %r9d
	.loc 4 517 5 view .LVU4483
.LBE1397:
.LBE1405:
.LBB1406:
	.loc 4 516 5 is_stmt 1 view .LVU4484
.LVL1054:
	.loc 4 516 5 view .LVU4485
	.loc 4 516 5 view .LVU4486
.LBE1406:
	.loc 4 516 29 view .LVU4487
.LBB1407:
	.loc 4 517 5 view .LVU4488
.LBB1398:
	.loc 4 517 5 view .LVU4489
	.loc 4 517 5 view .LVU4490
	movq	%r11, %rbx
	shrq	$32, %rbx
.LVL1055:
	.loc 4 517 5 view .LVU4491
	.loc 4 517 5 is_stmt 0 view .LVU4492
.LBE1398:
	.loc 4 517 5 is_stmt 1 view .LVU4493
	.loc 4 517 5 view .LVU4494
	.loc 4 517 5 view .LVU4495
	addl	%r11d, %eax
.LVL1056:
	.loc 4 517 5 is_stmt 0 discriminator 4 view .LVU4496
	movl	%ebx, %r11d
.LVL1057:
	.loc 4 517 5 discriminator 4 view .LVU4497
.LBE1407:
.LBB1408:
.LBB1409:
	.loc 4 518 5 view .LVU4498
	movl	12(%r8), %ebx
.LVL1058:
	.loc 4 518 5 view .LVU4499
.LBE1409:
.LBE1408:
.LBB1412:
	.loc 4 517 5 discriminator 4 view .LVU4500
	adcl	$0, %r11d
.LVL1059:
	.loc 4 517 5 is_stmt 1 view .LVU4501
	.loc 4 517 5 is_stmt 0 discriminator 4 view .LVU4502
	addl	%r11d, %r10d
.LBE1412:
.LBB1413:
.LBB1410:
	.loc 4 518 5 view .LVU4503
	movl	8(%rdx), %r11d
.LBE1410:
.LBE1413:
.LBB1414:
	.loc 4 517 5 discriminator 8 view .LVU4504
	adcl	$0, %r9d
.LVL1060:
	.loc 4 517 5 is_stmt 1 view .LVU4505
	.loc 4 517 5 view .LVU4506
.LBE1414:
	.loc 4 517 29 view .LVU4507
.LBB1415:
	.loc 4 518 5 view .LVU4508
.LBB1411:
	.loc 4 518 5 view .LVU4509
	imulq	%rbx, %r11
.LVL1061:
	.loc 4 518 5 view .LVU4510
	movq	%r11, %rbx
	shrq	$32, %rbx
.LVL1062:
	.loc 4 518 5 view .LVU4511
	.loc 4 518 5 is_stmt 0 view .LVU4512
.LBE1411:
	.loc 4 518 5 is_stmt 1 view .LVU4513
	.loc 4 518 5 view .LVU4514
	.loc 4 518 5 view .LVU4515
	addl	%r11d, %eax
.LVL1063:
	.loc 4 518 5 is_stmt 0 discriminator 4 view .LVU4516
	movl	%ebx, %r11d
.LVL1064:
	.loc 4 518 5 discriminator 4 view .LVU4517
	adcl	$0, %r11d
.LVL1065:
	.loc 4 518 5 is_stmt 1 view .LVU4518
	.loc 4 518 5 is_stmt 0 discriminator 4 view .LVU4519
	addl	%r11d, %r10d
.LBE1415:
.LBB1416:
.LBB1417:
	.loc 4 519 5 view .LVU4520
	movl	12(%rdx), %r11d
	movl	8(%r8), %ebx
.LBE1417:
.LBE1416:
.LBB1419:
	.loc 4 518 5 discriminator 8 view .LVU4521
	adcl	$0, %r9d
.LVL1066:
	.loc 4 518 5 is_stmt 1 view .LVU4522
	.loc 4 518 5 view .LVU4523
.LBE1419:
	.loc 4 518 29 view .LVU4524
.LBB1420:
	.loc 4 519 5 view .LVU4525
.LBB1418:
	.loc 4 519 5 view .LVU4526
	imulq	%rbx, %r11
.LVL1067:
	.loc 4 519 5 view .LVU4527
	movq	%r11, %rbx
	shrq	$32, %rbx
.LVL1068:
	.loc 4 519 5 view .LVU4528
	.loc 4 519 5 is_stmt 0 view .LVU4529
.LBE1418:
	.loc 4 519 5 is_stmt 1 view .LVU4530
	.loc 4 519 5 view .LVU4531
	.loc 4 519 5 view .LVU4532
	addl	%r11d, %eax
.LVL1069:
	.loc 4 519 5 is_stmt 0 discriminator 4 view .LVU4533
	movl	%ebx, %r11d
.LVL1070:
	.loc 4 519 5 discriminator 4 view .LVU4534
.LBE1420:
.LBB1421:
.LBB1422:
	.loc 4 520 5 view .LVU4535
	movl	4(%r8), %ebx
.LVL1071:
	.loc 4 520 5 view .LVU4536
.LBE1422:
.LBE1421:
.LBB1425:
	.loc 4 519 5 discriminator 4 view .LVU4537
	adcl	$0, %r11d
.LVL1072:
	.loc 4 519 5 is_stmt 1 view .LVU4538
	.loc 4 519 5 is_stmt 0 discriminator 4 view .LVU4539
	addl	%r11d, %r10d
.LBE1425:
.LBB1426:
.LBB1423:
	.loc 4 520 5 view .LVU4540
	movl	16(%rdx), %r11d
.LBE1423:
.LBE1426:
.LBB1427:
	.loc 4 519 5 discriminator 8 view .LVU4541
	adcl	$0, %r9d
.LVL1073:
	.loc 4 519 5 is_stmt 1 view .LVU4542
	.loc 4 519 5 view .LVU4543
.LBE1427:
	.loc 4 519 29 view .LVU4544
.LBB1428:
	.loc 4 520 5 view .LVU4545
.LBB1424:
	.loc 4 520 5 view .LVU4546
	imulq	%rbx, %r11
.LVL1074:
	.loc 4 520 5 view .LVU4547
	movq	%r11, %rbx
	shrq	$32, %rbx
.LVL1075:
	.loc 4 520 5 view .LVU4548
	.loc 4 520 5 is_stmt 0 view .LVU4549
.LBE1424:
	.loc 4 520 5 is_stmt 1 view .LVU4550
	.loc 4 520 5 view .LVU4551
	.loc 4 520 5 view .LVU4552
	addl	%r11d, %eax
.LVL1076:
	.loc 4 520 5 is_stmt 0 discriminator 4 view .LVU4553
	movl	%ebx, %r11d
.LVL1077:
	.loc 4 520 5 discriminator 4 view .LVU4554
.LBE1428:
.LBB1429:
.LBB1430:
	.loc 4 521 5 view .LVU4555
	movl	(%r8), %ebx
.LVL1078:
	.loc 4 521 5 view .LVU4556
.LBE1430:
.LBE1429:
.LBB1433:
	.loc 4 520 5 discriminator 4 view .LVU4557
	adcl	$0, %r11d
.LVL1079:
	.loc 4 520 5 is_stmt 1 view .LVU4558
	.loc 4 520 5 is_stmt 0 discriminator 4 view .LVU4559
	addl	%r11d, %r10d
.LBE1433:
.LBB1434:
.LBB1431:
	.loc 4 521 5 view .LVU4560
	movl	20(%rdx), %r11d
.LBE1431:
.LBE1434:
.LBB1435:
	.loc 4 520 5 discriminator 8 view .LVU4561
	adcl	$0, %r9d
.LVL1080:
	.loc 4 520 5 is_stmt 1 view .LVU4562
	.loc 4 520 5 view .LVU4563
.LBE1435:
	.loc 4 520 29 view .LVU4564
.LBB1436:
	.loc 4 521 5 view .LVU4565
.LBB1432:
	.loc 4 521 5 view .LVU4566
	imulq	%rbx, %r11
.LVL1081:
	.loc 4 521 5 view .LVU4567
	movq	%r11, %rbx
	shrq	$32, %rbx
.LVL1082:
	.loc 4 521 5 view .LVU4568
	.loc 4 521 5 is_stmt 0 view .LVU4569
.LBE1432:
	.loc 4 521 5 is_stmt 1 view .LVU4570
	.loc 4 521 5 view .LVU4571
	.loc 4 521 5 view .LVU4572
	addl	%r11d, %eax
.LVL1083:
	.loc 4 521 5 is_stmt 0 discriminator 4 view .LVU4573
	movl	%ebx, %r11d
.LVL1084:
	.loc 4 521 5 discriminator 4 view .LVU4574
.LBE1436:
	.loc 4 522 5 view .LVU4575
	movl	%eax, 20(%rcx)
.LVL1085:
.LBB1437:
.LBB1438:
	.loc 4 523 5 view .LVU4576
	movl	(%rdx), %eax
.LVL1086:
	.loc 4 523 5 view .LVU4577
.LBE1438:
.LBE1437:
.LBB1441:
	.loc 4 521 5 discriminator 4 view .LVU4578
	adcl	$0, %r11d
.LVL1087:
	.loc 4 521 5 is_stmt 1 view .LVU4579
.LBE1441:
.LBB1442:
.LBB1443:
	.loc 4 524 5 is_stmt 0 view .LVU4580
	movl	20(%r8), %ebx
.LBE1443:
.LBE1442:
.LBB1447:
	.loc 4 521 5 discriminator 4 view .LVU4581
	addl	%r11d, %r10d
.LVL1088:
	.loc 4 521 5 discriminator 4 view .LVU4582
.LBE1447:
.LBB1448:
.LBB1439:
	.loc 4 523 5 view .LVU4583
	movl	24(%r8), %r11d
.LBE1439:
.LBE1448:
.LBB1449:
	.loc 4 521 5 discriminator 8 view .LVU4584
	adcl	$0, %r9d
.LVL1089:
	.loc 4 521 5 is_stmt 1 view .LVU4585
	.loc 4 521 5 view .LVU4586
.LBE1449:
	.loc 4 521 29 view .LVU4587
	.loc 4 522 5 view .LVU4588
	.loc 4 522 5 view .LVU4589
	.loc 4 522 5 view .LVU4590
	.loc 4 522 5 view .LVU4591
	.loc 4 522 18 view .LVU4592
.LBB1450:
	.loc 4 523 5 view .LVU4593
.LBB1440:
	.loc 4 523 5 view .LVU4594
	imulq	%r11, %rax
.LVL1090:
	.loc 4 523 5 view .LVU4595
	movq	%rax, %r11
	shrq	$32, %r11
.LVL1091:
	.loc 4 523 5 view .LVU4596
	.loc 4 523 5 is_stmt 0 view .LVU4597
.LBE1440:
	.loc 4 523 5 is_stmt 1 view .LVU4598
	.loc 4 523 5 view .LVU4599
	.loc 4 523 5 view .LVU4600
	addl	%eax, %r10d
.LVL1092:
	.loc 4 523 5 is_stmt 0 discriminator 4 view .LVU4601
	movl	%r11d, %eax
.LVL1093:
	.loc 4 523 5 discriminator 4 view .LVU4602
.LBE1450:
.LBB1451:
.LBB1444:
	.loc 4 524 5 view .LVU4603
	movl	4(%rdx), %r11d
.LVL1094:
	.loc 4 524 5 view .LVU4604
.LBE1444:
.LBE1451:
.LBB1452:
	.loc 4 523 5 discriminator 4 view .LVU4605
	adcl	$0, %eax
.LVL1095:
	.loc 4 523 5 discriminator 4 view .LVU4606
	addl	%eax, %r9d
.LVL1096:
	.loc 4 523 5 discriminator 4 view .LVU4607
	setc	%al
.LBE1452:
.LBB1453:
.LBB1445:
	.loc 4 524 5 view .LVU4608
	imulq	%rbx, %r11
	movzbl	%al, %eax
	.loc 4 524 5 view .LVU4609
.LBE1445:
.LBE1453:
.LBB1454:
	.loc 4 523 5 is_stmt 1 view .LVU4610
.LVL1097:
	.loc 4 523 5 view .LVU4611
	.loc 4 523 5 view .LVU4612
.LBE1454:
	.loc 4 523 29 view .LVU4613
.LBB1455:
	.loc 4 524 5 view .LVU4614
.LBB1446:
	.loc 4 524 5 view .LVU4615
	.loc 4 524 5 view .LVU4616
	movq	%r11, %rbx
	shrq	$32, %rbx
.LVL1098:
	.loc 4 524 5 view .LVU4617
	.loc 4 524 5 is_stmt 0 view .LVU4618
.LBE1446:
	.loc 4 524 5 is_stmt 1 view .LVU4619
	.loc 4 524 5 view .LVU4620
	.loc 4 524 5 view .LVU4621
	addl	%r11d, %r10d
.LVL1099:
	.loc 4 524 5 is_stmt 0 discriminator 4 view .LVU4622
	movl	%ebx, %r11d
.LVL1100:
	.loc 4 524 5 discriminator 4 view .LVU4623
.LBE1455:
.LBB1456:
.LBB1457:
	.loc 4 525 5 view .LVU4624
	movl	16(%r8), %ebx
.LVL1101:
	.loc 4 525 5 view .LVU4625
.LBE1457:
.LBE1456:
.LBB1460:
	.loc 4 524 5 discriminator 4 view .LVU4626
	adcl	$0, %r11d
.LVL1102:
	.loc 4 524 5 is_stmt 1 view .LVU4627
	.loc 4 524 5 is_stmt 0 discriminator 4 view .LVU4628
	addl	%r11d, %r9d
.LBE1460:
.LBB1461:
.LBB1458:
	.loc 4 525 5 view .LVU4629
	movl	8(%rdx), %r11d
.LBE1458:
.LBE1461:
.LBB1462:
	.loc 4 524 5 discriminator 8 view .LVU4630
	adcl	$0, %eax
.LVL1103:
	.loc 4 524 5 is_stmt 1 view .LVU4631
	.loc 4 524 5 view .LVU4632
.LBE1462:
	.loc 4 524 29 view .LVU4633
.LBB1463:
	.loc 4 525 5 view .LVU4634
.LBB1459:
	.loc 4 525 5 view .LVU4635
	imulq	%rbx, %r11
.LVL1104:
	.loc 4 525 5 view .LVU4636
	movq	%r11, %rbx
	shrq	$32, %rbx
.LVL1105:
	.loc 4 525 5 view .LVU4637
	.loc 4 525 5 is_stmt 0 view .LVU4638
.LBE1459:
	.loc 4 525 5 is_stmt 1 view .LVU4639
	.loc 4 525 5 view .LVU4640
	.loc 4 525 5 view .LVU4641
	addl	%r11d, %r10d
.LVL1106:
	.loc 4 525 5 is_stmt 0 discriminator 4 view .LVU4642
	movl	%ebx, %r11d
.LVL1107:
	.loc 4 525 5 discriminator 4 view .LVU4643
.LBE1463:
.LBB1464:
.LBB1465:
	.loc 4 526 5 view .LVU4644
	movl	12(%r8), %ebx
.LVL1108:
	.loc 4 526 5 view .LVU4645
.LBE1465:
.LBE1464:
.LBB1468:
	.loc 4 525 5 discriminator 4 view .LVU4646
	adcl	$0, %r11d
.LVL1109:
	.loc 4 525 5 is_stmt 1 view .LVU4647
	.loc 4 525 5 is_stmt 0 discriminator 4 view .LVU4648
	addl	%r11d, %r9d
.LBE1468:
.LBB1469:
.LBB1466:
	.loc 4 526 5 view .LVU4649
	movl	12(%rdx), %r11d
.LBE1466:
.LBE1469:
.LBB1470:
	.loc 4 525 5 discriminator 8 view .LVU4650
	adcl	$0, %eax
.LVL1110:
	.loc 4 525 5 is_stmt 1 view .LVU4651
	.loc 4 525 5 view .LVU4652
.LBE1470:
	.loc 4 525 29 view .LVU4653
.LBB1471:
	.loc 4 526 5 view .LVU4654
.LBB1467:
	.loc 4 526 5 view .LVU4655
	imulq	%rbx, %r11
.LVL1111:
	.loc 4 526 5 view .LVU4656
	movq	%r11, %rbx
	shrq	$32, %rbx
.LVL1112:
	.loc 4 526 5 view .LVU4657
	.loc 4 526 5 is_stmt 0 view .LVU4658
.LBE1467:
	.loc 4 526 5 is_stmt 1 view .LVU4659
	.loc 4 526 5 view .LVU4660
	.loc 4 526 5 view .LVU4661
	addl	%r11d, %r10d
.LVL1113:
	.loc 4 526 5 is_stmt 0 discriminator 4 view .LVU4662
	movl	%ebx, %r11d
.LVL1114:
	.loc 4 526 5 discriminator 4 view .LVU4663
.LBE1471:
.LBB1472:
.LBB1473:
	.loc 4 527 5 view .LVU4664
	movl	8(%r8), %ebx
.LVL1115:
	.loc 4 527 5 view .LVU4665
.LBE1473:
.LBE1472:
.LBB1476:
	.loc 4 526 5 discriminator 4 view .LVU4666
	adcl	$0, %r11d
.LVL1116:
	.loc 4 526 5 is_stmt 1 view .LVU4667
	.loc 4 526 5 is_stmt 0 discriminator 4 view .LVU4668
	addl	%r11d, %r9d
.LBE1476:
.LBB1477:
.LBB1474:
	.loc 4 527 5 view .LVU4669
	movl	16(%rdx), %r11d
.LBE1474:
.LBE1477:
.LBB1478:
	.loc 4 526 5 discriminator 8 view .LVU4670
	adcl	$0, %eax
.LVL1117:
	.loc 4 526 5 is_stmt 1 view .LVU4671
	.loc 4 526 5 view .LVU4672
.LBE1478:
	.loc 4 526 29 view .LVU4673
.LBB1479:
	.loc 4 527 5 view .LVU4674
.LBB1475:
	.loc 4 527 5 view .LVU4675
	imulq	%rbx, %r11
.LVL1118:
	.loc 4 527 5 view .LVU4676
	movq	%r11, %rbx
	shrq	$32, %rbx
.LVL1119:
	.loc 4 527 5 view .LVU4677
	.loc 4 527 5 is_stmt 0 view .LVU4678
.LBE1475:
	.loc 4 527 5 is_stmt 1 view .LVU4679
	.loc 4 527 5 view .LVU4680
	.loc 4 527 5 view .LVU4681
	addl	%r11d, %r10d
.LVL1120:
	.loc 4 527 5 is_stmt 0 discriminator 4 view .LVU4682
	movl	%ebx, %r11d
.LVL1121:
	.loc 4 527 5 discriminator 4 view .LVU4683
.LBE1479:
.LBB1480:
.LBB1481:
	.loc 4 528 5 view .LVU4684
	movl	4(%r8), %ebx
.LVL1122:
	.loc 4 528 5 view .LVU4685
.LBE1481:
.LBE1480:
.LBB1484:
	.loc 4 527 5 discriminator 4 view .LVU4686
	adcl	$0, %r11d
.LVL1123:
	.loc 4 527 5 is_stmt 1 view .LVU4687
	.loc 4 527 5 is_stmt 0 discriminator 4 view .LVU4688
	addl	%r11d, %r9d
.LBE1484:
.LBB1485:
.LBB1482:
	.loc 4 528 5 view .LVU4689
	movl	20(%rdx), %r11d
.LBE1482:
.LBE1485:
.LBB1486:
	.loc 4 527 5 discriminator 8 view .LVU4690
	adcl	$0, %eax
.LVL1124:
	.loc 4 527 5 is_stmt 1 view .LVU4691
	.loc 4 527 5 view .LVU4692
.LBE1486:
	.loc 4 527 29 view .LVU4693
.LBB1487:
	.loc 4 528 5 view .LVU4694
.LBB1483:
	.loc 4 528 5 view .LVU4695
	imulq	%rbx, %r11
.LVL1125:
	.loc 4 528 5 view .LVU4696
	movq	%r11, %rbx
	shrq	$32, %rbx
.LVL1126:
	.loc 4 528 5 view .LVU4697
	.loc 4 528 5 is_stmt 0 view .LVU4698
.LBE1483:
	.loc 4 528 5 is_stmt 1 view .LVU4699
	.loc 4 528 5 view .LVU4700
	.loc 4 528 5 view .LVU4701
	addl	%r11d, %r10d
.LVL1127:
	.loc 4 528 5 is_stmt 0 discriminator 4 view .LVU4702
	movl	%ebx, %r11d
.LVL1128:
	.loc 4 528 5 discriminator 4 view .LVU4703
.LBE1487:
.LBB1488:
.LBB1489:
	.loc 4 529 5 view .LVU4704
	movl	(%r8), %ebx
.LVL1129:
	.loc 4 529 5 view .LVU4705
.LBE1489:
.LBE1488:
.LBB1492:
	.loc 4 528 5 discriminator 4 view .LVU4706
	adcl	$0, %r11d
.LVL1130:
	.loc 4 528 5 is_stmt 1 view .LVU4707
	.loc 4 528 5 is_stmt 0 discriminator 4 view .LVU4708
	addl	%r11d, %r9d
.LBE1492:
.LBB1493:
.LBB1490:
	.loc 4 529 5 view .LVU4709
	movl	24(%rdx), %r11d
.LBE1490:
.LBE1493:
.LBB1494:
	.loc 4 528 5 discriminator 8 view .LVU4710
	adcl	$0, %eax
.LVL1131:
	.loc 4 528 5 is_stmt 1 view .LVU4711
	.loc 4 528 5 view .LVU4712
.LBE1494:
	.loc 4 528 29 view .LVU4713
.LBB1495:
	.loc 4 529 5 view .LVU4714
.LBB1491:
	.loc 4 529 5 view .LVU4715
	imulq	%rbx, %r11
.LVL1132:
	.loc 4 529 5 view .LVU4716
	movq	%r11, %rbx
	shrq	$32, %rbx
.LVL1133:
	.loc 4 529 5 view .LVU4717
	.loc 4 529 5 is_stmt 0 view .LVU4718
.LBE1491:
	.loc 4 529 5 is_stmt 1 view .LVU4719
	.loc 4 529 5 view .LVU4720
	.loc 4 529 5 view .LVU4721
	addl	%r11d, %r10d
.LVL1134:
	.loc 4 529 5 is_stmt 0 discriminator 4 view .LVU4722
	movl	%ebx, %r11d
.LVL1135:
	.loc 4 529 5 discriminator 4 view .LVU4723
.LBE1495:
	.loc 4 530 5 view .LVU4724
	movl	%r10d, 24(%rcx)
.LVL1136:
.LBB1496:
.LBB1497:
	.loc 4 531 5 view .LVU4725
	movl	(%rdx), %r10d
.LVL1137:
	.loc 4 531 5 view .LVU4726
.LBE1497:
.LBE1496:
.LBB1500:
	.loc 4 529 5 discriminator 4 view .LVU4727
	adcl	$0, %r11d
.LVL1138:
	.loc 4 529 5 is_stmt 1 view .LVU4728
.LBE1500:
.LBB1501:
.LBB1502:
	.loc 4 532 5 is_stmt 0 view .LVU4729
	movl	24(%r8), %ebx
.LBE1502:
.LBE1501:
.LBB1506:
	.loc 4 529 5 discriminator 4 view .LVU4730
	addl	%r11d, %r9d
.LVL1139:
	.loc 4 529 5 discriminator 4 view .LVU4731
.LBE1506:
.LBB1507:
.LBB1498:
	.loc 4 531 5 view .LVU4732
	movl	28(%r8), %r11d
.LBE1498:
.LBE1507:
.LBB1508:
	.loc 4 529 5 discriminator 8 view .LVU4733
	adcl	$0, %eax
.LVL1140:
	.loc 4 529 5 is_stmt 1 view .LVU4734
	.loc 4 529 5 view .LVU4735
.LBE1508:
	.loc 4 529 29 view .LVU4736
	.loc 4 530 5 view .LVU4737
	.loc 4 530 5 view .LVU4738
	.loc 4 530 5 view .LVU4739
	.loc 4 530 5 view .LVU4740
	.loc 4 530 18 view .LVU4741
.LBB1509:
	.loc 4 531 5 view .LVU4742
.LBB1499:
	.loc 4 531 5 view .LVU4743
	imulq	%r11, %r10
.LVL1141:
	.loc 4 531 5 view .LVU4744
	movq	%r10, %r11
	shrq	$32, %r11
.LVL1142:
	.loc 4 531 5 view .LVU4745
	.loc 4 531 5 is_stmt 0 view .LVU4746
.LBE1499:
	.loc 4 531 5 is_stmt 1 view .LVU4747
	.loc 4 531 5 view .LVU4748
	.loc 4 531 5 view .LVU4749
	addl	%r10d, %r9d
.LVL1143:
	.loc 4 531 5 is_stmt 0 discriminator 4 view .LVU4750
	movl	%r11d, %r10d
.LVL1144:
	.loc 4 531 5 discriminator 4 view .LVU4751
.LBE1509:
.LBB1510:
.LBB1503:
	.loc 4 532 5 view .LVU4752
	movl	4(%rdx), %r11d
.LVL1145:
	.loc 4 532 5 view .LVU4753
.LBE1503:
.LBE1510:
.LBB1511:
	.loc 4 531 5 discriminator 4 view .LVU4754
	adcl	$0, %r10d
.LVL1146:
	.loc 4 531 5 discriminator 4 view .LVU4755
	addl	%r10d, %eax
.LVL1147:
	.loc 4 531 5 discriminator 4 view .LVU4756
	setc	%r10b
.LBE1511:
.LBB1512:
.LBB1504:
	.loc 4 532 5 view .LVU4757
	imulq	%rbx, %r11
	movzbl	%r10b, %r10d
	.loc 4 532 5 view .LVU4758
.LBE1504:
.LBE1512:
.LBB1513:
	.loc 4 531 5 is_stmt 1 view .LVU4759
.LVL1148:
	.loc 4 531 5 view .LVU4760
	.loc 4 531 5 view .LVU4761
.LBE1513:
	.loc 4 531 29 view .LVU4762
.LBB1514:
	.loc 4 532 5 view .LVU4763
.LBB1505:
	.loc 4 532 5 view .LVU4764
	.loc 4 532 5 view .LVU4765
	movq	%r11, %rbx
	shrq	$32, %rbx
.LVL1149:
	.loc 4 532 5 view .LVU4766
	.loc 4 532 5 is_stmt 0 view .LVU4767
.LBE1505:
	.loc 4 532 5 is_stmt 1 view .LVU4768
	.loc 4 532 5 view .LVU4769
	.loc 4 532 5 view .LVU4770
	addl	%r11d, %r9d
.LVL1150:
	.loc 4 532 5 is_stmt 0 discriminator 4 view .LVU4771
	movl	%ebx, %r11d
.LVL1151:
	.loc 4 532 5 discriminator 4 view .LVU4772
.LBE1514:
.LBB1515:
.LBB1516:
	.loc 4 533 5 view .LVU4773
	movl	20(%r8), %ebx
.LVL1152:
	.loc 4 533 5 view .LVU4774
.LBE1516:
.LBE1515:
.LBB1519:
	.loc 4 532 5 discriminator 4 view .LVU4775
	adcl	$0, %r11d
.LVL1153:
	.loc 4 532 5 is_stmt 1 view .LVU4776
	.loc 4 532 5 is_stmt 0 discriminator 4 view .LVU4777
	addl	%r11d, %eax
.LBE1519:
.LBB1520:
.LBB1517:
	.loc 4 533 5 view .LVU4778
	movl	8(%rdx), %r11d
.LBE1517:
.LBE1520:
.LBB1521:
	.loc 4 532 5 discriminator 8 view .LVU4779
	adcl	$0, %r10d
.LVL1154:
	.loc 4 532 5 is_stmt 1 view .LVU4780
	.loc 4 532 5 view .LVU4781
.LBE1521:
	.loc 4 532 29 view .LVU4782
.LBB1522:
	.loc 4 533 5 view .LVU4783
.LBB1518:
	.loc 4 533 5 view .LVU4784
	imulq	%rbx, %r11
.LVL1155:
	.loc 4 533 5 view .LVU4785
	movq	%r11, %rbx
	shrq	$32, %rbx
.LVL1156:
	.loc 4 533 5 view .LVU4786
	.loc 4 533 5 is_stmt 0 view .LVU4787
.LBE1518:
	.loc 4 533 5 is_stmt 1 view .LVU4788
	.loc 4 533 5 view .LVU4789
	.loc 4 533 5 view .LVU4790
	addl	%r11d, %r9d
.LVL1157:
	.loc 4 533 5 is_stmt 0 discriminator 4 view .LVU4791
	movl	%ebx, %r11d
.LVL1158:
	.loc 4 533 5 discriminator 4 view .LVU4792
.LBE1522:
.LBB1523:
.LBB1524:
	.loc 4 534 5 view .LVU4793
	movl	16(%r8), %ebx
.LVL1159:
	.loc 4 534 5 view .LVU4794
.LBE1524:
.LBE1523:
.LBB1527:
	.loc 4 533 5 discriminator 4 view .LVU4795
	adcl	$0, %r11d
.LVL1160:
	.loc 4 533 5 is_stmt 1 view .LVU4796
	.loc 4 533 5 is_stmt 0 discriminator 4 view .LVU4797
	addl	%r11d, %eax
.LBE1527:
.LBB1528:
.LBB1525:
	.loc 4 534 5 view .LVU4798
	movl	12(%rdx), %r11d
.LBE1525:
.LBE1528:
.LBB1529:
	.loc 4 533 5 discriminator 8 view .LVU4799
	adcl	$0, %r10d
.LVL1161:
	.loc 4 533 5 is_stmt 1 view .LVU4800
	.loc 4 533 5 view .LVU4801
.LBE1529:
	.loc 4 533 29 view .LVU4802
.LBB1530:
	.loc 4 534 5 view .LVU4803
.LBB1526:
	.loc 4 534 5 view .LVU4804
	imulq	%rbx, %r11
.LVL1162:
	.loc 4 534 5 view .LVU4805
	movq	%r11, %rbx
	shrq	$32, %rbx
.LVL1163:
	.loc 4 534 5 view .LVU4806
	.loc 4 534 5 is_stmt 0 view .LVU4807
.LBE1526:
	.loc 4 534 5 is_stmt 1 view .LVU4808
	.loc 4 534 5 view .LVU4809
	.loc 4 534 5 view .LVU4810
	addl	%r11d, %r9d
.LVL1164:
	.loc 4 534 5 is_stmt 0 discriminator 4 view .LVU4811
	movl	%ebx, %r11d
.LVL1165:
	.loc 4 534 5 discriminator 4 view .LVU4812
.LBE1530:
.LBB1531:
.LBB1532:
	.loc 4 535 5 view .LVU4813
	movl	12(%r8), %ebx
.LVL1166:
	.loc 4 535 5 view .LVU4814
.LBE1532:
.LBE1531:
.LBB1535:
	.loc 4 534 5 discriminator 4 view .LVU4815
	adcl	$0, %r11d
.LVL1167:
	.loc 4 534 5 is_stmt 1 view .LVU4816
	.loc 4 534 5 is_stmt 0 discriminator 4 view .LVU4817
	addl	%r11d, %eax
.LBE1535:
.LBB1536:
.LBB1533:
	.loc 4 535 5 view .LVU4818
	movl	16(%rdx), %r11d
.LBE1533:
.LBE1536:
.LBB1537:
	.loc 4 534 5 discriminator 8 view .LVU4819
	adcl	$0, %r10d
.LVL1168:
	.loc 4 534 5 is_stmt 1 view .LVU4820
	.loc 4 534 5 view .LVU4821
.LBE1537:
	.loc 4 534 29 view .LVU4822
.LBB1538:
	.loc 4 535 5 view .LVU4823
.LBB1534:
	.loc 4 535 5 view .LVU4824
	imulq	%rbx, %r11
.LVL1169:
	.loc 4 535 5 view .LVU4825
	movq	%r11, %rbx
	shrq	$32, %rbx
.LVL1170:
	.loc 4 535 5 view .LVU4826
	.loc 4 535 5 is_stmt 0 view .LVU4827
.LBE1534:
	.loc 4 535 5 is_stmt 1 view .LVU4828
	.loc 4 535 5 view .LVU4829
	.loc 4 535 5 view .LVU4830
	addl	%r11d, %r9d
.LVL1171:
	.loc 4 535 5 is_stmt 0 discriminator 4 view .LVU4831
	movl	%ebx, %r11d
.LVL1172:
	.loc 4 535 5 discriminator 4 view .LVU4832
	adcl	$0, %r11d
.LVL1173:
	.loc 4 535 5 is_stmt 1 view .LVU4833
	.loc 4 535 5 is_stmt 0 discriminator 4 view .LVU4834
	addl	%r11d, %eax
.LBE1538:
.LBB1539:
.LBB1540:
	.loc 4 536 5 view .LVU4835
	movl	20(%rdx), %r11d
	movl	8(%r8), %ebx
.LBE1540:
.LBE1539:
.LBB1542:
	.loc 4 535 5 discriminator 8 view .LVU4836
	adcl	$0, %r10d
.LVL1174:
	.loc 4 535 5 is_stmt 1 view .LVU4837
	.loc 4 535 5 view .LVU4838
.LBE1542:
	.loc 4 535 29 view .LVU4839
.LBB1543:
	.loc 4 536 5 view .LVU4840
.LBB1541:
	.loc 4 536 5 view .LVU4841
	imulq	%rbx, %r11
.LVL1175:
	.loc 4 536 5 view .LVU4842
	movq	%r11, %rbx
	shrq	$32, %rbx
.LVL1176:
	.loc 4 536 5 view .LVU4843
	.loc 4 536 5 is_stmt 0 view .LVU4844
.LBE1541:
	.loc 4 536 5 is_stmt 1 view .LVU4845
	.loc 4 536 5 view .LVU4846
	.loc 4 536 5 view .LVU4847
	addl	%r11d, %r9d
.LVL1177:
	.loc 4 536 5 is_stmt 0 discriminator 4 view .LVU4848
	movl	%ebx, %r11d
.LVL1178:
	.loc 4 536 5 discriminator 4 view .LVU4849
.LBE1543:
.LBB1544:
.LBB1545:
	.loc 4 537 5 view .LVU4850
	movl	4(%r8), %ebx
.LVL1179:
	.loc 4 537 5 view .LVU4851
.LBE1545:
.LBE1544:
.LBB1548:
	.loc 4 536 5 discriminator 4 view .LVU4852
	adcl	$0, %r11d
.LVL1180:
	.loc 4 536 5 is_stmt 1 view .LVU4853
	.loc 4 536 5 is_stmt 0 discriminator 4 view .LVU4854
	addl	%r11d, %eax
.LBE1548:
.LBB1549:
.LBB1546:
	.loc 4 537 5 view .LVU4855
	movl	24(%rdx), %r11d
.LBE1546:
.LBE1549:
.LBB1550:
	.loc 4 536 5 discriminator 8 view .LVU4856
	adcl	$0, %r10d
.LVL1181:
	.loc 4 536 5 is_stmt 1 view .LVU4857
	.loc 4 536 5 view .LVU4858
.LBE1550:
	.loc 4 536 29 view .LVU4859
.LBB1551:
	.loc 4 537 5 view .LVU4860
.LBB1547:
	.loc 4 537 5 view .LVU4861
	imulq	%rbx, %r11
.LVL1182:
	.loc 4 537 5 view .LVU4862
	movq	%r11, %rbx
	shrq	$32, %rbx
.LVL1183:
	.loc 4 537 5 view .LVU4863
	.loc 4 537 5 is_stmt 0 view .LVU4864
.LBE1547:
	.loc 4 537 5 is_stmt 1 view .LVU4865
	.loc 4 537 5 view .LVU4866
	.loc 4 537 5 view .LVU4867
	addl	%r11d, %r9d
.LVL1184:
	.loc 4 537 5 is_stmt 0 discriminator 4 view .LVU4868
	movl	%ebx, %r11d
.LVL1185:
	.loc 4 537 5 discriminator 4 view .LVU4869
.LBE1551:
.LBB1552:
.LBB1553:
	.loc 4 538 5 view .LVU4870
	movl	(%r8), %ebx
.LVL1186:
	.loc 4 538 5 view .LVU4871
.LBE1553:
.LBE1552:
.LBB1556:
	.loc 4 537 5 discriminator 4 view .LVU4872
	adcl	$0, %r11d
.LVL1187:
	.loc 4 537 5 is_stmt 1 view .LVU4873
	.loc 4 537 5 is_stmt 0 discriminator 4 view .LVU4874
	addl	%r11d, %eax
.LBE1556:
.LBB1557:
.LBB1554:
	.loc 4 538 5 view .LVU4875
	movl	28(%rdx), %r11d
.LBE1554:
.LBE1557:
.LBB1558:
	.loc 4 537 5 discriminator 8 view .LVU4876
	adcl	$0, %r10d
.LVL1188:
	.loc 4 537 5 is_stmt 1 view .LVU4877
	.loc 4 537 5 view .LVU4878
.LBE1558:
	.loc 4 537 29 view .LVU4879
.LBB1559:
	.loc 4 538 5 view .LVU4880
.LBB1555:
	.loc 4 538 5 view .LVU4881
	imulq	%rbx, %r11
.LVL1189:
	.loc 4 538 5 view .LVU4882
	movq	%r11, %rbx
	shrq	$32, %rbx
.LVL1190:
	.loc 4 538 5 view .LVU4883
	.loc 4 538 5 is_stmt 0 view .LVU4884
.LBE1555:
	.loc 4 538 5 is_stmt 1 view .LVU4885
	.loc 4 538 5 view .LVU4886
	.loc 4 538 5 view .LVU4887
	addl	%r11d, %r9d
.LVL1191:
	.loc 4 538 5 is_stmt 0 discriminator 4 view .LVU4888
	movl	%ebx, %r11d
.LVL1192:
	.loc 4 538 5 discriminator 4 view .LVU4889
.LBE1559:
	.loc 4 539 5 view .LVU4890
	movl	%r9d, 28(%rcx)
.LVL1193:
.LBB1560:
.LBB1561:
	.loc 4 540 5 view .LVU4891
	movl	4(%rdx), %r9d
.LVL1194:
	.loc 4 540 5 view .LVU4892
.LBE1561:
.LBE1560:
.LBB1564:
	.loc 4 538 5 discriminator 4 view .LVU4893
	adcl	$0, %r11d
.LVL1195:
	.loc 4 538 5 is_stmt 1 view .LVU4894
.LBE1564:
.LBB1565:
.LBB1566:
	.loc 4 541 5 is_stmt 0 view .LVU4895
	movl	24(%r8), %ebx
.LBE1566:
.LBE1565:
.LBB1570:
	.loc 4 538 5 discriminator 4 view .LVU4896
	addl	%r11d, %eax
.LVL1196:
	.loc 4 538 5 discriminator 4 view .LVU4897
.LBE1570:
.LBB1571:
.LBB1562:
	.loc 4 540 5 view .LVU4898
	movl	28(%r8), %r11d
.LBE1562:
.LBE1571:
.LBB1572:
	.loc 4 538 5 discriminator 8 view .LVU4899
	adcl	$0, %r10d
.LVL1197:
	.loc 4 538 5 is_stmt 1 view .LVU4900
	.loc 4 538 5 view .LVU4901
.LBE1572:
	.loc 4 538 29 view .LVU4902
	.loc 4 539 5 view .LVU4903
	.loc 4 539 5 view .LVU4904
	.loc 4 539 5 view .LVU4905
	.loc 4 539 5 view .LVU4906
	.loc 4 539 18 view .LVU4907
.LBB1573:
	.loc 4 540 5 view .LVU4908
.LBB1563:
	.loc 4 540 5 view .LVU4909
	imulq	%r11, %r9
.LVL1198:
	.loc 4 540 5 view .LVU4910
	movq	%r9, %r11
	shrq	$32, %r11
.LVL1199:
	.loc 4 540 5 view .LVU4911
	.loc 4 540 5 is_stmt 0 view .LVU4912
.LBE1563:
	.loc 4 540 5 is_stmt 1 view .LVU4913
	.loc 4 540 5 view .LVU4914
	.loc 4 540 5 view .LVU4915
	addl	%r9d, %eax
.LVL1200:
	.loc 4 540 5 is_stmt 0 discriminator 4 view .LVU4916
	movl	%r11d, %r9d
.LVL1201:
	.loc 4 540 5 discriminator 4 view .LVU4917
.LBE1573:
.LBB1574:
.LBB1567:
	.loc 4 541 5 view .LVU4918
	movl	8(%rdx), %r11d
.LVL1202:
	.loc 4 541 5 view .LVU4919
.LBE1567:
.LBE1574:
.LBB1575:
	.loc 4 540 5 discriminator 4 view .LVU4920
	adcl	$0, %r9d
.LVL1203:
	.loc 4 540 5 discriminator 4 view .LVU4921
	addl	%r10d, %r9d
	setc	%r10b
.LVL1204:
	.loc 4 540 5 discriminator 4 view .LVU4922
.LBE1575:
.LBB1576:
.LBB1568:
	.loc 4 541 5 view .LVU4923
	imulq	%rbx, %r11
	movzbl	%r10b, %r10d
	.loc 4 541 5 view .LVU4924
.LBE1568:
.LBE1576:
.LBB1577:
	.loc 4 540 5 is_stmt 1 view .LVU4925
.LVL1205:
	.loc 4 540 5 view .LVU4926
	.loc 4 540 5 view .LVU4927
.LBE1577:
	.loc 4 540 29 view .LVU4928
.LBB1578:
	.loc 4 541 5 view .LVU4929
.LBB1569:
	.loc 4 541 5 view .LVU4930
	.loc 4 541 5 view .LVU4931
	movq	%r11, %rbx
	shrq	$32, %rbx
.LVL1206:
	.loc 4 541 5 view .LVU4932
	.loc 4 541 5 is_stmt 0 view .LVU4933
.LBE1569:
	.loc 4 541 5 is_stmt 1 view .LVU4934
	.loc 4 541 5 view .LVU4935
	.loc 4 541 5 view .LVU4936
	addl	%r11d, %eax
.LVL1207:
	.loc 4 541 5 is_stmt 0 discriminator 4 view .LVU4937
	movl	%ebx, %r11d
.LVL1208:
	.loc 4 541 5 discriminator 4 view .LVU4938
.LBE1578:
.LBB1579:
.LBB1580:
	.loc 4 542 5 view .LVU4939
	movl	20(%r8), %ebx
.LVL1209:
	.loc 4 542 5 view .LVU4940
.LBE1580:
.LBE1579:
.LBB1583:
	.loc 4 541 5 discriminator 4 view .LVU4941
	adcl	$0, %r11d
.LVL1210:
	.loc 4 541 5 is_stmt 1 view .LVU4942
	.loc 4 541 5 is_stmt 0 discriminator 4 view .LVU4943
	addl	%r11d, %r9d
.LBE1583:
.LBB1584:
.LBB1581:
	.loc 4 542 5 view .LVU4944
	movl	12(%rdx), %r11d
.LBE1581:
.LBE1584:
.LBB1585:
	.loc 4 541 5 discriminator 8 view .LVU4945
	adcl	$0, %r10d
.LVL1211:
	.loc 4 541 5 is_stmt 1 view .LVU4946
	.loc 4 541 5 view .LVU4947
.LBE1585:
	.loc 4 541 29 view .LVU4948
.LBB1586:
	.loc 4 542 5 view .LVU4949
.LBB1582:
	.loc 4 542 5 view .LVU4950
	imulq	%rbx, %r11
.LVL1212:
	.loc 4 542 5 view .LVU4951
	movq	%r11, %rbx
	shrq	$32, %rbx
.LVL1213:
	.loc 4 542 5 view .LVU4952
	.loc 4 542 5 is_stmt 0 view .LVU4953
.LBE1582:
	.loc 4 542 5 is_stmt 1 view .LVU4954
	.loc 4 542 5 view .LVU4955
	.loc 4 542 5 view .LVU4956
	addl	%r11d, %eax
.LVL1214:
	.loc 4 542 5 is_stmt 0 discriminator 4 view .LVU4957
