	.file	"gcc_libinit_windows.c"
	.text
.Ltext0:
	.cfi_sections	.debug_frame
	.file 0 "//_/_/GOROOT/src/runtime/cgo" "gcc_libinit_windows.c"
	.section .rdata,"dr"
	.align 8
.LC0:
	.ascii "runtime: failed to create runtime initialization wait event.\12\0"
	.text
	.p2align 4
	.globl	_cgo_preinit_init
	.def	_cgo_preinit_init;	.scl	2;	.type	32;	.endef
	.seh_proc	_cgo_preinit_init
_cgo_preinit_init:
.LFB7693:
	.file 1 "gcc_libinit_windows.c"
	.loc 1 32 21 view -0
	.cfi_startproc
	subq	$40, %rsp
	.seh_stackalloc	40
	.cfi_def_cfa_offset 48
	.seh_endprologue
	.loc 1 33 3 view .LVU1
	.loc 1 33 23 is_stmt 0 view .LVU2
	xorl	%r9d, %r9d
	xorl	%r8d, %r8d
	movl	$1, %edx
	xorl	%ecx, %ecx
	call	*__imp_CreateEventA(%rip)
.LVL0:
	.loc 1 33 21 discriminator 1 view .LVU3
	movq	%rax, runtime_init_wait(%rip)
	.loc 1 34 3 is_stmt 1 view .LVU4
	.loc 1 34 6 is_stmt 0 view .LVU5
	testq	%rax, %rax
	je	.L4
	.loc 1 39 3 is_stmt 1 view .LVU6
	leaq	runtime_init_cs(%rip), %rcx
	.loc 1 40 1 is_stmt 0 view .LVU7
	addq	$40, %rsp
	.cfi_remember_state
	.cfi_def_cfa_offset 8
	.loc 1 39 3 view .LVU8
	rex.W jmp	*__imp_InitializeCriticalSection(%rip)
.LVL1:
.L4:
	.cfi_restore_state
.LBB24:
.LBI24:
	.loc 1 32 1 is_stmt 1 view .LVU9
.LBB25:
	.loc 1 35 3 view .LVU10
	.loc 1 35 11 is_stmt 0 view .LVU11
	movl	$2, %ecx
	call	*__imp___acrt_iob_func(%rip)
.LVL2:
	.loc 1 35 3 discriminator 1 view .LVU12
	movl	$61, %r8d
	movl	$1, %edx
	leaq	.LC0(%rip), %rcx
	.loc 1 35 11 view .LVU13
	movq	%rax, %r9
	.loc 1 35 3 discriminator 1 view .LVU14
	call	fwrite
.LVL3:
	.loc 1 36 3 is_stmt 1 view .LVU15
	call	abort
	nop
.LVL4:
.LBE25:
.LBE24:
	.cfi_endproc
.LFE7693:
	.seh_endproc
	.p2align 4
	.globl	_cgo_maybe_run_preinit
	.def	_cgo_maybe_run_preinit;	.scl	2;	.type	32;	.endef
	.seh_proc	_cgo_maybe_run_preinit
_cgo_maybe_run_preinit:
.LFB7694:
	.loc 1 44 26 view -0
	.cfi_startproc
	pushq	%rbx
	.seh_pushreg	%rbx
	.cfi_def_cfa_offset 16
	.cfi_offset 3, -16
	subq	$32, %rsp
	.seh_stackalloc	32
	.cfi_def_cfa_offset 48
	.seh_endprologue
	.loc 1 45 3 view .LVU17
.LVL5:
.LBB44:
.LBI44:
	.file 2 "C:/msys64/ucrt64/include/psdk_inc/intrin-impl.h"
	.loc 2 1671 10 view .LVU18
.LBB45:
	.loc 2 1672 5 view .LVU19
	.loc 2 1672 12 is_stmt 0 view .LVU20
	xorl	%eax, %eax
	lock xaddl	%eax, runtime_init_once_done(%rip)
.LVL6:
	.loc 2 1672 12 view .LVU21
.LBE45:
.LBE44:
	.loc 1 45 6 discriminator 1 view .LVU22
	testl	%eax, %eax
	je	.L12
	.loc 1 57 1 view .LVU23
	addq	$32, %rsp
	.cfi_remember_state
	.cfi_def_cfa_offset 16
	popq	%rbx
	.cfi_restore 3
	.cfi_def_cfa_offset 8
	ret
	.p2align 4,,10
	.p2align 3
.L12:
	.cfi_restore_state
	.loc 1 46 4 is_stmt 1 view .LVU24
.LVL7:
.LBB46:
.LBI46:
	.loc 2 1693 10 view .LVU25
.LBB47:
	.loc 2 1694 4 view .LVU26
	.loc 2 1694 11 is_stmt 0 view .LVU27
	movl	$1, %eax
	lock xaddl	%eax, runtime_init_once_gate(%rip)
.LVL8:
	.loc 2 1694 11 view .LVU28
.LBE47:
.LBE46:
	.loc 1 46 7 discriminator 1 view .LVU29
	testl	%eax, %eax
	je	.L13
.LBB48:
.LBI48:
	.loc 1 44 1 is_stmt 1 view .LVU30
.LBB49:
	.loc 1 51 6 view .LVU31
.LVL9:
.LBB50:
.LBI50:
	.loc 2 1704 10 view .LVU32
.LBB51:
	.loc 2 1705 4 view .LVU33
	.loc 2 1705 11 is_stmt 0 view .LVU34
	lock subl	$1, runtime_init_once_gate(%rip)
.LVL10:
	.loc 2 1705 11 view .LVU35
.LBE51:
.LBE50:
	.loc 1 52 6 is_stmt 1 view .LVU36
	.loc 1 53 7 is_stmt 0 view .LVU37
	movq	__imp_Sleep(%rip), %rbx
.LBB53:
.LBB52:
	.loc 2 1705 11 view .LVU38
	jmp	.L9
	.p2align 4,,10
	.p2align 3
.L10:
.LBE52:
.LBE53:
	.loc 1 53 7 is_stmt 1 view .LVU39
	xorl	%ecx, %ecx
	call	*%rbx
.LVL11:
.L9:
	.loc 1 52 12 view .LVU40
.LBB54:
.LBI54:
	.loc 2 1671 10 view .LVU41
.LBB55:
	.loc 2 1672 5 view .LVU42
	.loc 2 1672 12 is_stmt 0 view .LVU43
	xorl	%eax, %eax
	lock xaddl	%eax, runtime_init_once_done(%rip)
.LVL12:
	.loc 2 1672 12 view .LVU44
.LBE55:
.LBE54:
	.loc 1 52 12 discriminator 1 view .LVU45
	testl	%eax, %eax
	je	.L10
.LBE49:
.LBE48:
	.loc 1 57 1 view .LVU46
	addq	$32, %rsp
	.cfi_remember_state
	.cfi_def_cfa_offset 16
	popq	%rbx
	.cfi_restore 3
	.cfi_def_cfa_offset 8
	ret
	.p2align 4,,10
	.p2align 3
.L13:
	.cfi_restore_state
	.loc 1 47 6 is_stmt 1 view .LVU47
	call	_cgo_preinit_init
.LVL13:
	.loc 1 48 6 view .LVU48
.LBB56:
.LBI56:
	.loc 2 1693 10 view .LVU49
.LBB57:
	.loc 2 1694 4 view .LVU50
	.loc 2 1694 11 is_stmt 0 view .LVU51
	lock addl	$1, runtime_init_once_done(%rip)
.LVL14:
	.loc 2 1694 11 view .LVU52
.LBE57:
.LBE56:
	.loc 1 57 1 view .LVU53
	addq	$32, %rsp
	.cfi_def_cfa_offset 16
	popq	%rbx
	.cfi_restore 3
	.cfi_def_cfa_offset 8
	ret
	.cfi_endproc
.LFE7694:
	.seh_endproc
	.p2align 4
	.globl	_cgo_is_runtime_initialized
	.def	_cgo_is_runtime_initialized;	.scl	2;	.type	32;	.endef
	.seh_proc	_cgo_is_runtime_initialized
_cgo_is_runtime_initialized:
.LFB7696:
	.loc 1 65 31 is_stmt 1 view -0
	.cfi_startproc
	pushq	%rbx
	.seh_pushreg	%rbx
	.cfi_def_cfa_offset 16
	.cfi_offset 3, -16
	subq	$32, %rsp
	.seh_stackalloc	32
	.cfi_def_cfa_offset 48
	.seh_endprologue
	.loc 1 66 3 view .LVU55
	.loc 1 68 3 view .LVU56
	leaq	runtime_init_cs(%rip), %rcx
	call	*__imp_EnterCriticalSection(%rip)
.LVL15:
	.loc 1 69 3 view .LVU57
	.loc 1 69 10 is_stmt 0 view .LVU58
	movl	runtime_init_done(%rip), %ebx
.LVL16:
	.loc 1 70 3 is_stmt 1 view .LVU59
	leaq	runtime_init_cs(%rip), %rcx
	call	*__imp_LeaveCriticalSection(%rip)
.LVL17:
	.loc 1 71 3 view .LVU60
	.loc 1 72 1 is_stmt 0 view .LVU61
	movl	%ebx, %eax
	addq	$32, %rsp
	.cfi_def_cfa_offset 16
	popq	%rbx
	.cfi_restore 3
	.cfi_def_cfa_offset 8
.LVL18:
	.loc 1 72 1 view .LVU62
	ret
	.cfi_endproc
.LFE7696:
	.seh_endproc
	.p2align 4
	.globl	_cgo_wait_runtime_init_done
	.def	_cgo_wait_runtime_init_done;	.scl	2;	.type	32;	.endef
	.seh_proc	_cgo_wait_runtime_init_done
_cgo_wait_runtime_init_done:
.LFB7697:
	.loc 1 75 35 is_stmt 1 view -0
	.cfi_startproc
	pushq	%rbp
	.seh_pushreg	%rbp
	.cfi_def_cfa_offset 16
	.cfi_offset 6, -16
	pushq	%rdi
	.seh_pushreg	%rdi
	.cfi_def_cfa_offset 24
	.cfi_offset 5, -24
	pushq	%rsi
	.seh_pushreg	%rsi
	.cfi_def_cfa_offset 32
	.cfi_offset 4, -32
	pushq	%rbx
	.seh_pushreg	%rbx
	.cfi_def_cfa_offset 40
	.cfi_offset 3, -40
	subq	$56, %rsp
	.seh_stackalloc	56
	.cfi_def_cfa_offset 96
	.seh_endprologue
	.loc 1 76 2 view .LVU64
	.loc 1 78 3 view .LVU65
	call	_cgo_maybe_run_preinit
.LVL19:
	.loc 1 79 2 view .LVU66
	movq	__imp_EnterCriticalSection(%rip), %rdi
	movq	__imp_LeaveCriticalSection(%rip), %rsi
	.loc 1 80 4 is_stmt 0 view .LVU67
	movq	__imp_WaitForSingleObject(%rip), %rbp
	.loc 1 79 8 view .LVU68
	jmp	.L16
	.p2align 4,,10
	.p2align 3
.L17:
	.loc 1 80 4 is_stmt 1 view .LVU69
	movq	runtime_init_wait(%rip), %rcx
	movl	$-1, %edx
	call	*%rbp
.LVL20:
.L16:
	.loc 1 79 9 view .LVU70
.LBB63:
.LBI63:
	.loc 1 65 1 view .LVU71
.LBB64:
	.loc 1 66 3 view .LVU72
	.loc 1 68 3 view .LVU73
	leaq	runtime_init_cs(%rip), %rcx
	call	*%rdi
.LVL21:
	.loc 1 69 3 view .LVU74
	.loc 1 69 10 is_stmt 0 view .LVU75
	movl	runtime_init_done(%rip), %ebx
.LVL22:
	.loc 1 70 3 is_stmt 1 view .LVU76
	leaq	runtime_init_cs(%rip), %rcx
	call	*%rsi
.LVL23:
	.loc 1 71 3 view .LVU77
	.loc 1 71 3 is_stmt 0 view .LVU78
.LBE64:
.LBE63:
	.loc 1 79 9 discriminator 1 view .LVU79
	testl	%ebx, %ebx
	je	.L17
	.loc 1 82 2 is_stmt 1 view .LVU80
.LBB65:
.LBI65:
	.loc 1 159 9 view .LVU81
.LBB66:
	.loc 1 160 2 view .LVU82
	.loc 1 162 2 view .LVU83
	leaq	runtime_init_cs(%rip), %rcx
	call	*%rdi
.LVL24:
	.loc 1 163 2 view .LVU84
	.loc 1 163 6 is_stmt 0 view .LVU85
	movq	cgo_context_function(%rip), %rbx
.LVL25:
	.loc 1 164 2 is_stmt 1 view .LVU86
	leaq	runtime_init_cs(%rip), %rcx
	call	*%rsi
.LVL26:
	.loc 1 165 2 view .LVU87
	.loc 1 165 2 is_stmt 0 view .LVU88
.LBE66:
.LBE65:
	.loc 1 83 2 is_stmt 1 view .LVU89
	.loc 1 90 9 is_stmt 0 view .LVU90
	xorl	%eax, %eax
	.loc 1 83 5 view .LVU91
	testq	%rbx, %rbx
	je	.L15
.LBB67:
	.loc 1 84 3 is_stmt 1 view .LVU92
	.loc 1 86 3 view .LVU93
	.loc 1 86 15 is_stmt 0 view .LVU94
	movq	$0, 40(%rsp)
	.loc 1 87 3 is_stmt 1 view .LVU95
	.loc 1 87 4 is_stmt 0 view .LVU96
	leaq	40(%rsp), %rcx
	call	*%rbx
.LVL27:
	.loc 1 88 3 is_stmt 1 view .LVU97
	.loc 1 88 13 is_stmt 0 view .LVU98
	movq	40(%rsp), %rax
.L15:
.LBE67:
	.loc 1 91 1 view .LVU99
	addq	$56, %rsp
	.cfi_def_cfa_offset 40
	popq	%rbx
	.cfi_restore 3
	.cfi_def_cfa_offset 32
.LVL28:
	.loc 1 91 1 view .LVU100
	popq	%rsi
	.cfi_restore 4
	.cfi_def_cfa_offset 24
	popq	%rdi
	.cfi_restore 5
	.cfi_def_cfa_offset 16
	popq	%rbp
	.cfi_restore 6
	.cfi_def_cfa_offset 8
	ret
	.cfi_endproc
.LFE7697:
	.seh_endproc
	.section .rdata,"dr"
	.align 8
.LC1:
	.ascii "unexpected cgo_bindm on Windows\12\0"
	.text
	.p2align 4
	.globl	x_cgo_bindm
	.def	x_cgo_bindm;	.scl	2;	.type	32;	.endef
	.seh_proc	x_cgo_bindm
x_cgo_bindm:
.LVL29:
.LFB7698:
	.loc 1 94 31 is_stmt 1 view -0
	.cfi_startproc
	.loc 1 94 31 is_stmt 0 view .LVU102
	subq	$40, %rsp
	.seh_stackalloc	40
	.cfi_def_cfa_offset 48
	.seh_endprologue
	.loc 1 95 2 is_stmt 1 view .LVU103
	.loc 1 95 10 is_stmt 0 view .LVU104
	movl	$2, %ecx
.LVL30:
	.loc 1 95 10 view .LVU105
	call	*__imp___acrt_iob_func(%rip)
.LVL31:
	.loc 1 95 2 discriminator 1 view .LVU106
	movl	$32, %r8d
	movl	$1, %edx
	leaq	.LC1(%rip), %rcx
	.loc 1 95 10 view .LVU107
	movq	%rax, %r9
	.loc 1 95 2 discriminator 1 view .LVU108
	call	fwrite
.LVL32:
	.loc 1 96 2 is_stmt 1 view .LVU109
	call	abort
	nop
.LVL33:
	.cfi_endproc
.LFE7698:
	.seh_endproc
	.section .rdata,"dr"
	.align 8
.LC2:
	.ascii "runtime: failed to signal runtime initialization complete.\12\0"
	.text
	.p2align 4
	.globl	x_cgo_notify_runtime_init_done
	.def	x_cgo_notify_runtime_init_done;	.scl	2;	.type	32;	.endef
	.seh_proc	x_cgo_notify_runtime_init_done
x_cgo_notify_runtime_init_done:
.LVL34:
.LFB7699:
	.loc 1 100 45 view -0
	.cfi_startproc
	.loc 1 100 45 is_stmt 0 view .LVU111
	subq	$40, %rsp
	.seh_stackalloc	40
	.cfi_def_cfa_offset 48
	.seh_endprologue
	.loc 1 101 3 is_stmt 1 view .LVU112
	call	_cgo_maybe_run_preinit
.LVL35:
	.loc 1 103 3 view .LVU113
	leaq	runtime_init_cs(%rip), %rcx
	call	*__imp_EnterCriticalSection(%rip)
.LVL36:
	.loc 1 104 2 view .LVU114
	.loc 1 105 3 is_stmt 0 view .LVU115
	leaq	runtime_init_cs(%rip), %rcx
	.loc 1 104 20 view .LVU116
	movl	$1, runtime_init_done(%rip)
	.loc 1 105 3 is_stmt 1 view .LVU117
	call	*__imp_LeaveCriticalSection(%rip)
.LVL37:
	.loc 1 107 3 view .LVU118
	.loc 1 107 8 is_stmt 0 view .LVU119
	movq	runtime_init_wait(%rip), %rcx
	call	*__imp_SetEvent(%rip)
.LVL38:
	.loc 1 107 6 discriminator 1 view .LVU120
	testl	%eax, %eax
	je	.L24
	.loc 1 111 1 view .LVU121
	addq	$40, %rsp
	.cfi_remember_state
	.cfi_def_cfa_offset 8
	ret
.L24:
	.cfi_restore_state
	.loc 1 108 3 is_stmt 1 view .LVU122
	.loc 1 108 11 is_stmt 0 view .LVU123
	movl	$2, %ecx
	call	*__imp___acrt_iob_func(%rip)
.LVL39:
	.loc 1 108 3 discriminator 1 view .LVU124
	movl	$59, %r8d
	movl	$1, %edx
	leaq	.LC2(%rip), %rcx
	.loc 1 108 11 view .LVU125
	movq	%rax, %r9
	.loc 1 108 3 discriminator 1 view .LVU126
	call	fwrite
.LVL40:
	.loc 1 109 3 is_stmt 1 view .LVU127
	call	abort
	nop
.LVL41:
	.cfi_endproc
.LFE7699:
	.seh_endproc
	.p2align 4
	.globl	x_cgo_set_traceback_functions
	.def	x_cgo_set_traceback_functions;	.scl	2;	.type	32;	.endef
	.seh_proc	x_cgo_set_traceback_functions
x_cgo_set_traceback_functions:
.LVL42:
.LFB7700:
	.loc 1 124 77 view -0
	.cfi_startproc
	.loc 1 124 77 is_stmt 0 view .LVU129
	pushq	%rbx
	.seh_pushreg	%rbx
	.cfi_def_cfa_offset 16
	.cfi_offset 3, -16
	subq	$32, %rsp
	.seh_stackalloc	32
	.cfi_def_cfa_offset 48
	.seh_endprologue
	.loc 1 125 2 is_stmt 1 view .LVU130
	.loc 1 124 77 is_stmt 0 view .LVU131
	movq	%rcx, %rbx
	.loc 1 125 2 view .LVU132
	leaq	runtime_init_cs(%rip), %rcx
.LVL43:
	.loc 1 125 2 view .LVU133
	call	*__imp_EnterCriticalSection(%rip)
.LVL44:
	.loc 1 126 2 is_stmt 1 view .LVU134
	.loc 1 126 25 is_stmt 0 view .LVU135
	movq	(%rbx), %rax
	.loc 1 129 2 view .LVU136
	leaq	runtime_init_cs(%rip), %rcx
	.loc 1 126 25 view .LVU137
	movq	%rax, cgo_traceback_function(%rip)
	.loc 1 127 2 is_stmt 1 view .LVU138
	.loc 1 127 23 is_stmt 0 view .LVU139
	movq	8(%rbx), %rax
	movq	%rax, cgo_context_function(%rip)
	.loc 1 128 2 is_stmt 1 view .LVU140
	.loc 1 128 26 is_stmt 0 view .LVU141
	movq	16(%rbx), %rax
	movq	%rax, cgo_symbolizer_function(%rip)
	.loc 1 129 2 is_stmt 1 view .LVU142
	.loc 1 130 1 is_stmt 0 view .LVU143
	addq	$32, %rsp
	.cfi_def_cfa_offset 16
	popq	%rbx
	.cfi_restore 3
	.cfi_def_cfa_offset 8
.LVL45:
	.loc 1 129 2 view .LVU144
	rex.W jmp	*__imp_LeaveCriticalSection(%rip)
.LVL46:
	.cfi_endproc
.LFE7700:
	.seh_endproc
	.p2align 4
	.globl	_cgo_get_traceback_function
	.def	_cgo_get_traceback_function;	.scl	2;	.type	32;	.endef
	.seh_proc	_cgo_get_traceback_function
_cgo_get_traceback_function:
.LFB7701:
	.loc 1 133 70 is_stmt 1 view -0
	.cfi_startproc
	pushq	%rbx
	.seh_pushreg	%rbx
	.cfi_def_cfa_offset 16
	.cfi_offset 3, -16
	subq	$32, %rsp
	.seh_stackalloc	32
	.cfi_def_cfa_offset 48
	.seh_endprologue
	.loc 1 134 2 view .LVU146
	.loc 1 136 2 view .LVU147
	leaq	runtime_init_cs(%rip), %rcx
	call	*__imp_EnterCriticalSection(%rip)
.LVL47:
	.loc 1 137 2 view .LVU148
	.loc 1 137 6 is_stmt 0 view .LVU149
	movq	cgo_traceback_function(%rip), %rbx
.LVL48:
	.loc 1 138 2 is_stmt 1 view .LVU150
	leaq	runtime_init_cs(%rip), %rcx
	call	*__imp_LeaveCriticalSection(%rip)
.LVL49:
	.loc 1 139 2 view .LVU151
	.loc 1 140 1 is_stmt 0 view .LVU152
	movq	%rbx, %rax
	addq	$32, %rsp
	.cfi_def_cfa_offset 16
	popq	%rbx
	.cfi_restore 3
	.cfi_def_cfa_offset 8
.LVL50:
	.loc 1 140 1 view .LVU153
	ret
	.cfi_endproc
.LFE7701:
	.seh_endproc
	.p2align 4
	.globl	x_cgo_call_traceback_function
	.def	x_cgo_call_traceback_function;	.scl	2;	.type	32;	.endef
	.seh_proc	x_cgo_call_traceback_function
x_cgo_call_traceback_function:
.LVL51:
.LFB7702:
	.loc 1 146 65 is_stmt 1 view -0
	.cfi_startproc
	.loc 1 146 65 is_stmt 0 view .LVU155
	pushq	%rsi
	.seh_pushreg	%rsi
	.cfi_def_cfa_offset 16
	.cfi_offset 4, -16
	pushq	%rbx
	.seh_pushreg	%rbx
	.cfi_def_cfa_offset 24
	.cfi_offset 3, -24
	subq	$40, %rsp
	.seh_stackalloc	40
	.cfi_def_cfa_offset 64
	.seh_endprologue
	.loc 1 147 2 is_stmt 1 view .LVU156
	.loc 1 149 2 view .LVU157
.LBB70:
.LBI70:
	.loc 1 133 9 view .LVU158
.LBB71:
	.loc 1 134 2 view .LVU159
	.loc 1 136 2 view .LVU160
.LBE71:
.LBE70:
	.loc 1 146 65 is_stmt 0 view .LVU161
	movq	%rcx, %rsi
.LBB73:
.LBB72:
	.loc 1 136 2 view .LVU162
	leaq	runtime_init_cs(%rip), %rcx
.LVL52:
	.loc 1 136 2 view .LVU163
	call	*__imp_EnterCriticalSection(%rip)
.LVL53:
	.loc 1 137 2 is_stmt 1 view .LVU164
	.loc 1 137 6 is_stmt 0 view .LVU165
	movq	cgo_traceback_function(%rip), %rbx
.LVL54:
	.loc 1 138 2 is_stmt 1 view .LVU166
	leaq	runtime_init_cs(%rip), %rcx
	call	*__imp_LeaveCriticalSection(%rip)
.LVL55:
	.loc 1 139 2 view .LVU167
	.loc 1 139 2 is_stmt 0 view .LVU168
.LBE72:
.LBE73:
	.loc 1 150 2 is_stmt 1 view .LVU169
	.loc 1 150 5 is_stmt 0 view .LVU170
	testq	%rbx, %rbx
	je	.L27
	.loc 1 154 2 is_stmt 1 view .LVU171
	.loc 1 154 3 is_stmt 0 view .LVU172
	movq	%rsi, %rcx
	movq	%rbx, %rax
	.loc 1 155 1 view .LVU173
	addq	$40, %rsp
	.cfi_remember_state
	.cfi_def_cfa_offset 24
	popq	%rbx
	.cfi_restore 3
	.cfi_def_cfa_offset 16
.LVL56:
	.loc 1 155 1 view .LVU174
	popq	%rsi
	.cfi_restore 4
	.cfi_def_cfa_offset 8
.LVL57:
	.loc 1 154 3 view .LVU175
	rex.W jmp	*%rax
.LVL58:
	.p2align 4,,10
	.p2align 3
.L27:
	.cfi_restore_state
	.loc 1 155 1 view .LVU176
	addq	$40, %rsp
	.cfi_def_cfa_offset 24
	popq	%rbx
	.cfi_restore 3
	.cfi_def_cfa_offset 16
.LVL59:
	.loc 1 155 1 view .LVU177
	popq	%rsi
	.cfi_restore 4
	.cfi_def_cfa_offset 8
.LVL60:
	.loc 1 155 1 view .LVU178
	ret
	.cfi_endproc
.LFE7702:
	.seh_endproc
	.p2align 4
	.globl	_cgo_get_context_function
	.def	_cgo_get_context_function;	.scl	2;	.type	32;	.endef
	.seh_proc	_cgo_get_context_function
_cgo_get_context_function:
.LFB7703:
	.loc 1 159 66 is_stmt 1 view -0
	.cfi_startproc
	pushq	%rbx
	.seh_pushreg	%rbx
	.cfi_def_cfa_offset 16
	.cfi_offset 3, -16
	subq	$32, %rsp
	.seh_stackalloc	32
	.cfi_def_cfa_offset 48
	.seh_endprologue
	.loc 1 160 2 view .LVU180
	.loc 1 162 2 view .LVU181
	leaq	runtime_init_cs(%rip), %rcx
	call	*__imp_EnterCriticalSection(%rip)
.LVL61:
	.loc 1 163 2 view .LVU182
	.loc 1 163 6 is_stmt 0 view .LVU183
	movq	cgo_context_function(%rip), %rbx
.LVL62:
	.loc 1 164 2 is_stmt 1 view .LVU184
	leaq	runtime_init_cs(%rip), %rcx
	call	*__imp_LeaveCriticalSection(%rip)
.LVL63:
	.loc 1 165 2 view .LVU185
	.loc 1 166 1 is_stmt 0 view .LVU186
	movq	%rbx, %rax
	addq	$32, %rsp
	.cfi_def_cfa_offset 16
	popq	%rbx
	.cfi_restore 3
	.cfi_def_cfa_offset 8
.LVL64:
	.loc 1 166 1 view .LVU187
	ret
	.cfi_endproc
.LFE7703:
	.seh_endproc
	.p2align 4
	.globl	_cgo_get_symbolizer_function
	.def	_cgo_get_symbolizer_function;	.scl	2;	.type	32;	.endef
	.seh_proc	_cgo_get_symbolizer_function
_cgo_get_symbolizer_function:
.LFB7704:
	.loc 1 169 72 is_stmt 1 view -0
	.cfi_startproc
	pushq	%rbx
	.seh_pushreg	%rbx
	.cfi_def_cfa_offset 16
	.cfi_offset 3, -16
	subq	$32, %rsp
	.seh_stackalloc	32
	.cfi_def_cfa_offset 48
	.seh_endprologue
	.loc 1 170 2 view .LVU189
	.loc 1 172 2 view .LVU190
	leaq	runtime_init_cs(%rip), %rcx
	call	*__imp_EnterCriticalSection(%rip)
.LVL65:
	.loc 1 173 2 view .LVU191
	.loc 1 173 6 is_stmt 0 view .LVU192
	movq	cgo_symbolizer_function(%rip), %rbx
.LVL66:
	.loc 1 174 2 is_stmt 1 view .LVU193
	leaq	runtime_init_cs(%rip), %rcx
	call	*__imp_LeaveCriticalSection(%rip)
.LVL67:
	.loc 1 175 2 view .LVU194
	.loc 1 176 1 is_stmt 0 view .LVU195
	movq	%rbx, %rax
	addq	$32, %rsp
	.cfi_def_cfa_offset 16
	popq	%rbx
	.cfi_restore 3
	.cfi_def_cfa_offset 8
.LVL68:
	.loc 1 176 1 view .LVU196
	ret
	.cfi_endproc
.LFE7704:
	.seh_endproc
	.p2align 4
	.globl	x_cgo_call_symbolizer_function
	.def	x_cgo_call_symbolizer_function;	.scl	2;	.type	32;	.endef
	.seh_proc	x_cgo_call_symbolizer_function
x_cgo_call_symbolizer_function:
.LVL69:
.LFB7705:
	.loc 1 182 67 is_stmt 1 view -0
	.cfi_startproc
	.loc 1 182 67 is_stmt 0 view .LVU198
	pushq	%rsi
	.seh_pushreg	%rsi
	.cfi_def_cfa_offset 16
	.cfi_offset 4, -16
	pushq	%rbx
	.seh_pushreg	%rbx
	.cfi_def_cfa_offset 24
	.cfi_offset 3, -24
	subq	$40, %rsp
	.seh_stackalloc	40
	.cfi_def_cfa_offset 64
	.seh_endprologue
	.loc 1 183 2 is_stmt 1 view .LVU199
	.loc 1 185 2 view .LVU200
.LBB76:
.LBI76:
	.loc 1 169 9 view .LVU201
.LBB77:
	.loc 1 170 2 view .LVU202
	.loc 1 172 2 view .LVU203
.LBE77:
.LBE76:
	.loc 1 182 67 is_stmt 0 view .LVU204
	movq	%rcx, %rsi
.LBB79:
.LBB78:
	.loc 1 172 2 view .LVU205
	leaq	runtime_init_cs(%rip), %rcx
.LVL70:
	.loc 1 172 2 view .LVU206
	call	*__imp_EnterCriticalSection(%rip)
.LVL71:
	.loc 1 173 2 is_stmt 1 view .LVU207
	.loc 1 173 6 is_stmt 0 view .LVU208
	movq	cgo_symbolizer_function(%rip), %rbx
.LVL72:
	.loc 1 174 2 is_stmt 1 view .LVU209
	leaq	runtime_init_cs(%rip), %rcx
	call	*__imp_LeaveCriticalSection(%rip)
.LVL73:
	.loc 1 175 2 view .LVU210
	.loc 1 175 2 is_stmt 0 view .LVU211
.LBE78:
.LBE79:
	.loc 1 186 2 is_stmt 1 view .LVU212
	.loc 1 186 5 is_stmt 0 view .LVU213
	testq	%rbx, %rbx
	je	.L31
	.loc 1 190 2 is_stmt 1 view .LVU214
	.loc 1 190 3 is_stmt 0 view .LVU215
	movq	%rsi, %rcx
	movq	%rbx, %rax
	.loc 1 191 1 view .LVU216
	addq	$40, %rsp
	.cfi_remember_state
	.cfi_def_cfa_offset 24
	popq	%rbx
	.cfi_restore 3
	.cfi_def_cfa_offset 16
.LVL74:
	.loc 1 191 1 view .LVU217
	popq	%rsi
	.cfi_restore 4
	.cfi_def_cfa_offset 8
.LVL75:
	.loc 1 190 3 view .LVU218
	rex.W jmp	*%rax
.LVL76:
	.p2align 4,,10
	.p2align 3
.L31:
	.cfi_restore_state
	.loc 1 191 1 view .LVU219
	addq	$40, %rsp
	.cfi_def_cfa_offset 24
	popq	%rbx
	.cfi_restore 3
	.cfi_def_cfa_offset 16
.LVL77:
	.loc 1 191 1 view .LVU220
	popq	%rsi
	.cfi_restore 4
	.cfi_def_cfa_offset 8
.LVL78:
	.loc 1 191 1 view .LVU221
	ret
	.cfi_endproc
.LFE7705:
	.seh_endproc
	.section .rdata,"dr"
	.align 8
.LC3:
	.ascii "runtime: failed to create new OS thread (%lu)\12\0"
	.text
	.p2align 4
	.globl	_cgo_beginthread
	.def	_cgo_beginthread;	.scl	2;	.type	32;	.endef
	.seh_proc	_cgo_beginthread
_cgo_beginthread:
.LVL79:
.LFB7706:
	.loc 1 193 74 is_stmt 1 view -0
	.cfi_startproc
	.loc 1 193 74 is_stmt 0 view .LVU223
	pushq	%rdi
	.seh_pushreg	%rdi
	.cfi_def_cfa_offset 16
	.cfi_offset 5, -16
	pushq	%rsi
	.seh_pushreg	%rsi
	.cfi_def_cfa_offset 24
	.cfi_offset 4, -24
	pushq	%rbx
	.seh_pushreg	%rbx
	.cfi_def_cfa_offset 32
	.cfi_offset 3, -32
	subq	$48, %rsp
	.seh_stackalloc	48
	.cfi_def_cfa_offset 80
	.seh_endprologue
	.loc 1 194 2 is_stmt 1 view .LVU224
	.loc 1 195 2 view .LVU225
	.loc 1 197 2 view .LVU226
.LVL80:
	.loc 1 197 24 discriminator 1 view .LVU227
	.loc 1 197 13 is_stmt 0 view .LVU228
	xorl	%edi, %edi
	.loc 1 193 74 view .LVU229
	movq	%rcx, %rsi
	movq	%rdx, %rbx
.LVL81:
.L36:
	.loc 1 198 3 is_stmt 1 view .LVU230
	.loc 1 198 13 is_stmt 0 view .LVU231
	xorl	%edx, %edx
	xorl	%ecx, %ecx
	movl	$0, 32(%rsp)
	movq	%rbx, %r9
	movq	$0, 40(%rsp)
	movq	%rsi, %r8
	call	*__imp_CreateThread(%rip)
.LVL82:
	.loc 1 199 3 is_stmt 1 view .LVU232
	.loc 1 199 6 is_stmt 0 view .LVU233
	testq	%rax, %rax
	jne	.L34
	.loc 1 199 23 discriminator 1 view .LVU234
	call	*__imp_GetLastError(%rip)
.LVL83:
	.loc 1 199 20 discriminator 2 view .LVU235
	cmpl	$5, %eax
	je	.L38
.L35:
	.loc 1 212 2 is_stmt 1 view .LVU236
	call	*__imp_GetLastError(%rip)
.LVL84:
	.loc 1 212 10 is_stmt 0 discriminator 1 view .LVU237
	movl	$2, %ecx
	.loc 1 212 2 view .LVU238
	movl	%eax, %ebx
.LVL85:
	.loc 1 212 10 discriminator 1 view .LVU239
	call	*__imp___acrt_iob_func(%rip)
.LVL86:
	.loc 1 212 2 discriminator 2 view .LVU240
	movl	%ebx, %r8d
	leaq	.LC3(%rip), %rdx
	movq	%rax, %rcx
	call	fprintf
.LVL87:
	.loc 1 213 2 is_stmt 1 view .LVU241
	call	abort
.LVL88:
	.p2align 4,,10
	.p2align 3
.L34:
	.loc 1 205 10 view .LVU242
	.loc 1 208 3 view .LVU243
	movq	%rax, %rcx
	.loc 1 214 1 is_stmt 0 view .LVU244
	addq	$48, %rsp
	.cfi_remember_state
	.cfi_def_cfa_offset 32
	popq	%rbx
	.cfi_restore 3
	.cfi_def_cfa_offset 24
.LVL89:
	.loc 1 214 1 view .LVU245
	popq	%rsi
	.cfi_restore 4
	.cfi_def_cfa_offset 16
.LVL90:
	.loc 1 214 1 view .LVU246
	popq	%rdi
	.cfi_restore 5
	.cfi_def_cfa_offset 8
.LVL91:
	.loc 1 208 3 view .LVU247
	rex.W jmp	*__imp_CloseHandle(%rip)
.LVL92:
	.p2align 4,,10
	.p2align 3
.L38:
	.cfi_restore_state
	.loc 1 203 4 is_stmt 1 view .LVU248
	movl	%edi, %ecx
	.loc 1 197 35 is_stmt 0 discriminator 2 view .LVU249
	addl	$1, %edi
.LVL93:
	.loc 1 203 4 view .LVU250
	call	*__imp_Sleep(%rip)
.LVL94:
	.loc 1 204 4 is_stmt 1 view .LVU251
	.loc 1 197 35 discriminator 2 view .LVU252
	.loc 1 197 24 discriminator 1 view .LVU253
	cmpl	$20, %edi
	jne	.L36
	jmp	.L35
	.cfi_endproc
.LFE7706:
	.seh_endproc
	.p2align 4
	.globl	x_cgo_sys_thread_create
	.def	x_cgo_sys_thread_create;	.scl	2;	.type	32;	.endef
	.seh_proc	x_cgo_sys_thread_create
x_cgo_sys_thread_create:
.LVL95:
.LFB7695:
	.loc 1 60 76 view -0
	.cfi_startproc
	.loc 1 60 76 is_stmt 0 view .LVU255
	.seh_endprologue
	.loc 1 61 2 is_stmt 1 view .LVU256
	.loc 1 62 1 is_stmt 0 view .LVU257
	.loc 1 61 2 view .LVU258
	jmp	_cgo_beginthread
.LVL96:
	.loc 1 61 2 view .LVU259
	.cfi_endproc
.LFE7695:
	.seh_endproc
.lcomm cgo_symbolizer_function,8,8
.lcomm cgo_context_function,8,8
.lcomm cgo_traceback_function,8,8
	.globl	x_crosscall2_ptr
	.bss
	.align 8
x_crosscall2_ptr:
	.space 8
	.globl	x_cgo_pthread_key_created
	.align 8
x_cgo_pthread_key_created:
	.space 8
.lcomm runtime_init_done,4,4
.lcomm runtime_init_wait,8,8
.lcomm runtime_init_cs,40,32
.lcomm runtime_init_once_done,4,4
.lcomm runtime_init_once_gate,4,4
	.text
.Letext0:
	.file 3 "C:/msys64/ucrt64/include/corecrt.h"
	.file 4 "C:/msys64/ucrt64/include/minwindef.h"
	.file 5 "C:/msys64/ucrt64/include/basetsd.h"
	.file 6 "C:/msys64/ucrt64/include/winnt.h"
	.file 7 "C:/msys64/ucrt64/include/minwinbase.h"
	.file 8 "C:/msys64/ucrt64/include/stdio.h"
	.file 9 "libcgo.h"
	.file 10 "C:/msys64/ucrt64/include/handleapi.h"
	.file 11 "C:/msys64/ucrt64/include/processthreadsapi.h"
	.file 12 "C:/msys64/ucrt64/include/synchapi.h"
	.file 13 "C:/msys64/ucrt64/include/errhandlingapi.h"
	.file 14 "C:/msys64/ucrt64/include/stdlib.h"
	.file 15 "<built-in>"